ARM GAS  /tmp/ccxhDnYG.s 			page 1


   1              		.syntax unified
   2              		.cpu cortex-m0
   3              		.fpu softvfp
   4              		.eabi_attribute 20, 1
   5              		.eabi_attribute 21, 1
   6              		.eabi_attribute 23, 3
   7              		.eabi_attribute 24, 1
   8              		.eabi_attribute 25, 1
   9              		.eabi_attribute 26, 1
  10              		.eabi_attribute 30, 1
  11              		.eabi_attribute 34, 0
  12              		.eabi_attribute 18, 4
  13              		.thumb
  14              		.syntax unified
  15              		.file	"ina3221.c"
  16              		.text
  17              	.Ltext0:
  18              		.cfi_sections	.debug_frame
  19              		.section	.text.ina3221_set_reg_pointer,"ax",%progbits
  20              		.align	2
  21              		.code	16
  22              		.thumb_func
  24              	ina3221_set_reg_pointer:
  25              	.LFB41:
  26              		.file 1 "Core/Driver/ina3221/ina3221.c"
   1:Core/Driver/ina3221/ina3221.c **** 
   2:Core/Driver/ina3221/ina3221.c **** // INA3221 - Ti current sense amplifiers
   3:Core/Driver/ina3221/ina3221.c **** 
   4:Core/Driver/ina3221/ina3221.c **** #include "ina3221.h"
   5:Core/Driver/ina3221/ina3221.c **** 
   6:Core/Driver/ina3221/ina3221.c **** 
   7:Core/Driver/ina3221/ina3221.c **** #ifdef INA3221_DEBUG
   8:Core/Driver/ina3221/ina3221.c **** #define CPRINTF(format, args...) PRINTF("INA3221: " format, ##args)
   9:Core/Driver/ina3221/ina3221.c **** #else
  10:Core/Driver/ina3221/ina3221.c **** #define CPRINTF(format, args...) 
  11:Core/Driver/ina3221/ina3221.c **** #endif
  12:Core/Driver/ina3221/ina3221.c **** 
  13:Core/Driver/ina3221/ina3221.c **** 
  14:Core/Driver/ina3221/ina3221.c **** static int ina3221_set_reg_pointer(uint8_t reg)
  15:Core/Driver/ina3221/ina3221.c **** {
  27              		.loc 1 15 0
  28              		.cfi_startproc
  29              		@ args = 0, pretend = 0, frame = 8
  30              		@ frame_needed = 0, uses_anonymous_args = 0
  31              	.LVL0:
  32 0000 00B5     		push	{lr}
  33              	.LCFI0:
  34              		.cfi_def_cfa_offset 4
  35              		.cfi_offset 14, -4
  36 0002 85B0     		sub	sp, sp, #20
  37              	.LCFI1:
  38              		.cfi_def_cfa_offset 24
  39 0004 0F22     		movs	r2, #15
  40 0006 6A44     		add	r2, r2, sp
  41 0008 1070     		strb	r0, [r2]
  16:Core/Driver/ina3221/ina3221.c **** 	uint8_t re;
  17:Core/Driver/ina3221/ina3221.c **** 
ARM GAS  /tmp/ccxhDnYG.s 			page 2


  18:Core/Driver/ina3221/ina3221.c **** 	re = HAL_I2C_Master_Transmit(&hi2c1, (INA3221_I2C_ADDR << 1),
  42              		.loc 1 18 0
  43 000a FA23     		movs	r3, #250
  44 000c 9B00     		lsls	r3, r3, #2
  45 000e 0093     		str	r3, [sp]
  46 0010 0123     		movs	r3, #1
  47 0012 8021     		movs	r1, #128
  48 0014 0248     		ldr	r0, .L2
  49              	.LVL1:
  50 0016 FFF7FEFF 		bl	HAL_I2C_Master_Transmit
  51              	.LVL2:
  19:Core/Driver/ina3221/ina3221.c **** 						&reg, sizeof(reg), 1000);
  20:Core/Driver/ina3221/ina3221.c **** 
  21:Core/Driver/ina3221/ina3221.c **** 	if (re != HAL_OK)
  22:Core/Driver/ina3221/ina3221.c **** 		CPRINTF("setup reg pointer fail! (%d)", re);
  23:Core/Driver/ina3221/ina3221.c **** 
  24:Core/Driver/ina3221/ina3221.c **** 	return re;
  25:Core/Driver/ina3221/ina3221.c **** }
  52              		.loc 1 25 0
  53 001a 05B0     		add	sp, sp, #20
  54              		@ sp needed
  55 001c 00BD     		pop	{pc}
  56              	.L3:
  57 001e C046     		.align	2
  58              	.L2:
  59 0020 00000000 		.word	hi2c1
  60              		.cfi_endproc
  61              	.LFE41:
  63              		.section	.text.ina3221_read16,"ax",%progbits
  64              		.align	2
  65              		.code	16
  66              		.thumb_func
  68              	ina3221_read16:
  69              	.LFB42:
  26:Core/Driver/ina3221/ina3221.c **** 
  27:Core/Driver/ina3221/ina3221.c **** static int ina3221_read16(uint16_t reg, uint16_t *data)
  28:Core/Driver/ina3221/ina3221.c **** {
  70              		.loc 1 28 0
  71              		.cfi_startproc
  72              		@ args = 0, pretend = 0, frame = 8
  73              		@ frame_needed = 0, uses_anonymous_args = 0
  74              	.LVL3:
  75 0000 10B5     		push	{r4, lr}
  76              	.LCFI2:
  77              		.cfi_def_cfa_offset 8
  78              		.cfi_offset 4, -8
  79              		.cfi_offset 14, -4
  80 0002 84B0     		sub	sp, sp, #16
  81              	.LCFI3:
  82              		.cfi_def_cfa_offset 24
  83 0004 0C00     		movs	r4, r1
  29:Core/Driver/ina3221/ina3221.c **** 	int re;
  30:Core/Driver/ina3221/ina3221.c **** 	uint16_t val;
  31:Core/Driver/ina3221/ina3221.c **** 
  32:Core/Driver/ina3221/ina3221.c **** 	ina3221_set_reg_pointer(reg);
  84              		.loc 1 32 0
  85 0006 C0B2     		uxtb	r0, r0
ARM GAS  /tmp/ccxhDnYG.s 			page 3


  86              	.LVL4:
  87 0008 FFF7FEFF 		bl	ina3221_set_reg_pointer
  88              	.LVL5:
  33:Core/Driver/ina3221/ina3221.c **** 
  34:Core/Driver/ina3221/ina3221.c **** 	re = HAL_I2C_Master_Receive(&hi2c1, (INA3221_I2C_ADDR << 1),
  89              		.loc 1 34 0
  90 000c FA23     		movs	r3, #250
  91 000e 9B00     		lsls	r3, r3, #2
  92 0010 0093     		str	r3, [sp]
  93 0012 0223     		movs	r3, #2
  94 0014 0E22     		movs	r2, #14
  95 0016 6A44     		add	r2, r2, sp
  96 0018 8021     		movs	r1, #128
  97 001a 0748     		ldr	r0, .L7
  98 001c FFF7FEFF 		bl	HAL_I2C_Master_Receive
  99              	.LVL6:
  35:Core/Driver/ina3221/ina3221.c **** 					(uint8_t *) &val, sizeof(val), 1000);
  36:Core/Driver/ina3221/ina3221.c **** 
  37:Core/Driver/ina3221/ina3221.c **** 	if (re != HAL_OK) {
 100              		.loc 1 37 0
 101 0020 0028     		cmp	r0, #0
 102 0022 06D1     		bne	.L5
  38:Core/Driver/ina3221/ina3221.c **** 		CPRINTF("read16 reg:0x%02x fail!", reg);
  39:Core/Driver/ina3221/ina3221.c **** 		return re;
  40:Core/Driver/ina3221/ina3221.c **** 	}
  41:Core/Driver/ina3221/ina3221.c **** 
  42:Core/Driver/ina3221/ina3221.c ****         *data =  (val >> 8) | ((val & 0xff) << 8);
 103              		.loc 1 42 0
 104 0024 0E23     		movs	r3, #14
 105 0026 6B44     		add	r3, r3, sp
 106 0028 1B88     		ldrh	r3, [r3]
 107 002a 1A02     		lsls	r2, r3, #8
 108 002c 1B0A     		lsrs	r3, r3, #8
 109 002e 1343     		orrs	r3, r2
 110 0030 2380     		strh	r3, [r4]
 111              	.L5:
  43:Core/Driver/ina3221/ina3221.c ****         return 0;
  44:Core/Driver/ina3221/ina3221.c **** }
 112              		.loc 1 44 0
 113 0032 04B0     		add	sp, sp, #16
 114              		@ sp needed
 115              	.LVL7:
 116 0034 10BD     		pop	{r4, pc}
 117              	.L8:
 118 0036 C046     		.align	2
 119              	.L7:
 120 0038 00000000 		.word	hi2c1
 121              		.cfi_endproc
 122              	.LFE42:
 124              		.section	.text.ina3221_write16,"ax",%progbits
 125              		.align	2
 126              		.code	16
 127              		.thumb_func
 129              	ina3221_write16:
 130              	.LFB43:
  45:Core/Driver/ina3221/ina3221.c **** 
  46:Core/Driver/ina3221/ina3221.c **** static int ina3221_write16(uint16_t reg, uint16_t data)
ARM GAS  /tmp/ccxhDnYG.s 			page 4


  47:Core/Driver/ina3221/ina3221.c **** {
 131              		.loc 1 47 0
 132              		.cfi_startproc
 133              		@ args = 0, pretend = 0, frame = 8
 134              		@ frame_needed = 0, uses_anonymous_args = 0
 135              	.LVL8:
 136 0000 10B5     		push	{r4, lr}
 137              	.LCFI4:
 138              		.cfi_def_cfa_offset 8
 139              		.cfi_offset 4, -8
 140              		.cfi_offset 14, -4
 141 0002 84B0     		sub	sp, sp, #16
 142              	.LCFI5:
 143              		.cfi_def_cfa_offset 24
  48:Core/Driver/ina3221/ina3221.c **** 	int re;
  49:Core/Driver/ina3221/ina3221.c **** 	uint16_t val = (data >> 8) | ((data & 0xff) << 8);
 144              		.loc 1 49 0
 145 0004 0B02     		lsls	r3, r1, #8
 146 0006 0E24     		movs	r4, #14
 147 0008 6C44     		add	r4, r4, sp
 148 000a 090A     		lsrs	r1, r1, #8
 149              	.LVL9:
 150 000c 1943     		orrs	r1, r3
 151 000e 2180     		strh	r1, [r4]
  50:Core/Driver/ina3221/ina3221.c **** 
  51:Core/Driver/ina3221/ina3221.c **** 	ina3221_set_reg_pointer(reg);
 152              		.loc 1 51 0
 153 0010 C0B2     		uxtb	r0, r0
 154              	.LVL10:
 155 0012 FFF7FEFF 		bl	ina3221_set_reg_pointer
 156              	.LVL11:
  52:Core/Driver/ina3221/ina3221.c **** 
  53:Core/Driver/ina3221/ina3221.c **** 	re = HAL_I2C_Master_Transmit(&hi2c1, (INA3221_I2C_ADDR << 1),
 157              		.loc 1 53 0
 158 0016 FA23     		movs	r3, #250
 159 0018 9B00     		lsls	r3, r3, #2
 160 001a 0093     		str	r3, [sp]
 161 001c 0223     		movs	r3, #2
 162 001e 2200     		movs	r2, r4
 163 0020 8021     		movs	r1, #128
 164 0022 0248     		ldr	r0, .L10
 165 0024 FFF7FEFF 		bl	HAL_I2C_Master_Transmit
 166              	.LVL12:
  54:Core/Driver/ina3221/ina3221.c **** 						(uint8_t*) &val, sizeof(val), 1000);
  55:Core/Driver/ina3221/ina3221.c **** 
  56:Core/Driver/ina3221/ina3221.c **** 	if (re)
  57:Core/Driver/ina3221/ina3221.c **** 		CPRINTF("write16 reg:0x%02x data:0x%04x fail!", reg, data);
  58:Core/Driver/ina3221/ina3221.c **** 
  59:Core/Driver/ina3221/ina3221.c **** 	return re;
  60:Core/Driver/ina3221/ina3221.c **** }
 167              		.loc 1 60 0
 168 0028 04B0     		add	sp, sp, #16
 169              		@ sp needed
 170 002a 10BD     		pop	{r4, pc}
 171              	.L11:
 172              		.align	2
 173              	.L10:
ARM GAS  /tmp/ccxhDnYG.s 			page 5


 174 002c 00000000 		.word	hi2c1
 175              		.cfi_endproc
 176              	.LFE43:
 178              		.section	.text.ina3221_gat_data,"ax",%progbits
 179              		.align	2
 180              		.global	ina3221_gat_data
 181              		.code	16
 182              		.thumb_func
 184              	ina3221_gat_data:
 185              	.LFB44:
  61:Core/Driver/ina3221/ina3221.c **** 
  62:Core/Driver/ina3221/ina3221.c **** int ina3221_gat_data(int ch, int *shunt_volt, int *bus_volt)
  63:Core/Driver/ina3221/ina3221.c **** {
 186              		.loc 1 63 0
 187              		.cfi_startproc
 188              		@ args = 0, pretend = 0, frame = 8
 189              		@ frame_needed = 0, uses_anonymous_args = 0
 190              	.LVL13:
 191 0000 70B5     		push	{r4, r5, r6, lr}
 192              	.LCFI6:
 193              		.cfi_def_cfa_offset 16
 194              		.cfi_offset 4, -16
 195              		.cfi_offset 5, -12
 196              		.cfi_offset 6, -8
 197              		.cfi_offset 14, -4
 198 0002 82B0     		sub	sp, sp, #8
 199              	.LCFI7:
 200              		.cfi_def_cfa_offset 24
 201 0004 0E00     		movs	r6, r1
 202 0006 1400     		movs	r4, r2
  64:Core/Driver/ina3221/ina3221.c **** 	int re;
  65:Core/Driver/ina3221/ina3221.c **** 	uint16_t volt;
  66:Core/Driver/ina3221/ina3221.c **** 	uint16_t shunt_volt_reg ,bus_volt_reg;
  67:Core/Driver/ina3221/ina3221.c **** 
  68:Core/Driver/ina3221/ina3221.c **** 	shunt_volt_reg = INA3221_REG_SHUNT_VOLT + (2*(ch-1));
 203              		.loc 1 68 0
 204 0008 0138     		subs	r0, r0, #1
 205              	.LVL14:
 206 000a 4000     		lsls	r0, r0, #1
 207              	.LVL15:
 208 000c 83B2     		uxth	r3, r0
 209 000e 581C     		adds	r0, r3, #1
 210 0010 80B2     		uxth	r0, r0
 211              	.LVL16:
  69:Core/Driver/ina3221/ina3221.c **** 	bus_volt_reg = shunt_volt_reg + 1;
 212              		.loc 1 69 0
 213 0012 0233     		adds	r3, r3, #2
 214 0014 9DB2     		uxth	r5, r3
 215              	.LVL17:
  70:Core/Driver/ina3221/ina3221.c **** 
  71:Core/Driver/ina3221/ina3221.c **** 	re = ina3221_read16(shunt_volt_reg, &volt);
 216              		.loc 1 71 0
 217 0016 6B46     		mov	r3, sp
 218 0018 991D     		adds	r1, r3, #6
 219              	.LVL18:
 220 001a FFF7FEFF 		bl	ina3221_read16
 221              	.LVL19:
ARM GAS  /tmp/ccxhDnYG.s 			page 6


  72:Core/Driver/ina3221/ina3221.c **** 
  73:Core/Driver/ina3221/ina3221.c **** 	if (re) {
 222              		.loc 1 73 0
 223 001e 0028     		cmp	r0, #0
 224 0020 0FD1     		bne	.L14
  74:Core/Driver/ina3221/ina3221.c **** 		return 1;
  75:Core/Driver/ina3221/ina3221.c **** 	}
  76:Core/Driver/ina3221/ina3221.c **** 	CPRINTF("read16 SHUNT_VOLT 0x%02x (%d)\r\n", volt, volt);
  77:Core/Driver/ina3221/ina3221.c **** 
  78:Core/Driver/ina3221/ina3221.c **** 	*shunt_volt = INA3221_SHUNT_UV((int)volt);
 225              		.loc 1 78 0
 226 0022 6B46     		mov	r3, sp
 227 0024 991D     		adds	r1, r3, #6
 228 0026 0B88     		ldrh	r3, [r1]
 229 0028 9A00     		lsls	r2, r3, #2
 230 002a D318     		adds	r3, r2, r3
 231 002c 3360     		str	r3, [r6]
  79:Core/Driver/ina3221/ina3221.c **** 
  80:Core/Driver/ina3221/ina3221.c **** 	re = ina3221_read16(bus_volt_reg, &volt);
 232              		.loc 1 80 0
 233 002e 2800     		movs	r0, r5
 234              	.LVL20:
 235 0030 FFF7FEFF 		bl	ina3221_read16
 236              	.LVL21:
  81:Core/Driver/ina3221/ina3221.c **** 
  82:Core/Driver/ina3221/ina3221.c **** 	if (re) {
 237              		.loc 1 82 0
 238 0034 0028     		cmp	r0, #0
 239 0036 06D1     		bne	.L15
  83:Core/Driver/ina3221/ina3221.c **** 		return 1;
  84:Core/Driver/ina3221/ina3221.c **** 	}
  85:Core/Driver/ina3221/ina3221.c **** 
  86:Core/Driver/ina3221/ina3221.c **** 	CPRINTF("read16 BUS_VOLT 0x%02x (%d)\r\n", volt, volt);
  87:Core/Driver/ina3221/ina3221.c **** 
  88:Core/Driver/ina3221/ina3221.c **** 	*bus_volt = INA3221_BUS_MV(volt);
 240              		.loc 1 88 0
 241 0038 6B46     		mov	r3, sp
 242 003a 0633     		adds	r3, r3, #6
 243 003c 1B88     		ldrh	r3, [r3]
 244 003e 2360     		str	r3, [r4]
  89:Core/Driver/ina3221/ina3221.c **** 
  90:Core/Driver/ina3221/ina3221.c **** 	return re;
 245              		.loc 1 90 0
 246 0040 02E0     		b	.L13
 247              	.L14:
  74:Core/Driver/ina3221/ina3221.c **** 	}
 248              		.loc 1 74 0
 249 0042 0120     		movs	r0, #1
 250              	.LVL22:
 251 0044 00E0     		b	.L13
 252              	.LVL23:
 253              	.L15:
  83:Core/Driver/ina3221/ina3221.c **** 		return 1;
 254              		.loc 1 83 0
 255 0046 0120     		movs	r0, #1
 256              	.LVL24:
 257              	.L13:
ARM GAS  /tmp/ccxhDnYG.s 			page 7


  91:Core/Driver/ina3221/ina3221.c **** }
 258              		.loc 1 91 0
 259 0048 02B0     		add	sp, sp, #8
 260              		@ sp needed
 261              	.LVL25:
 262              	.LVL26:
 263              	.LVL27:
 264 004a 70BD     		pop	{r4, r5, r6, pc}
 265              		.cfi_endproc
 266              	.LFE44:
 268              		.section	.text.ina3221_reset,"ax",%progbits
 269              		.align	2
 270              		.global	ina3221_reset
 271              		.code	16
 272              		.thumb_func
 274              	ina3221_reset:
 275              	.LFB45:
  92:Core/Driver/ina3221/ina3221.c **** 
  93:Core/Driver/ina3221/ina3221.c **** int ina3221_reset(void)
  94:Core/Driver/ina3221/ina3221.c **** {
 276              		.loc 1 94 0
 277              		.cfi_startproc
 278              		@ args = 0, pretend = 0, frame = 0
 279              		@ frame_needed = 0, uses_anonymous_args = 0
 280 0000 10B5     		push	{r4, lr}
 281              	.LCFI8:
 282              		.cfi_def_cfa_offset 8
 283              		.cfi_offset 4, -8
 284              		.cfi_offset 14, -4
 285              	.LVL28:
  95:Core/Driver/ina3221/ina3221.c **** 	uint16_t config = INA3221_CONFIG_REG | INA3221_REG_RST;
  96:Core/Driver/ina3221/ina3221.c **** 
  97:Core/Driver/ina3221/ina3221.c **** 	CPRINTF("reset\r\n");
  98:Core/Driver/ina3221/ina3221.c **** 
  99:Core/Driver/ina3221/ina3221.c **** 	return ina3221_write16(INA3221_REG_CONFIG, config);
 286              		.loc 1 99 0
 287 0002 0249     		ldr	r1, .L17
 288 0004 0020     		movs	r0, #0
 289 0006 FFF7FEFF 		bl	ina3221_write16
 290              	.LVL29:
 100:Core/Driver/ina3221/ina3221.c **** }
 291              		.loc 1 100 0
 292              		@ sp needed
 293 000a 10BD     		pop	{r4, pc}
 294              	.L18:
 295              		.align	2
 296              	.L17:
 297 000c 27C10000 		.word	49447
 298              		.cfi_endproc
 299              	.LFE45:
 301              		.section	.text.is_ina3221_ready,"ax",%progbits
 302              		.align	2
 303              		.global	is_ina3221_ready
 304              		.code	16
 305              		.thumb_func
 307              	is_ina3221_ready:
 308              	.LFB46:
ARM GAS  /tmp/ccxhDnYG.s 			page 8


 101:Core/Driver/ina3221/ina3221.c **** 
 102:Core/Driver/ina3221/ina3221.c **** /**
 103:Core/Driver/ina3221/ina3221.c ****  * return 0 ,if ina3221 no respond
 104:Core/Driver/ina3221/ina3221.c ****  * return 1 ,if ina3221 exist
 105:Core/Driver/ina3221/ina3221.c ****  */
 106:Core/Driver/ina3221/ina3221.c **** int is_ina3221_ready(void)
 107:Core/Driver/ina3221/ina3221.c **** {
 309              		.loc 1 107 0
 310              		.cfi_startproc
 311              		@ args = 0, pretend = 0, frame = 0
 312              		@ frame_needed = 0, uses_anonymous_args = 0
 313 0000 10B5     		push	{r4, lr}
 314              	.LCFI9:
 315              		.cfi_def_cfa_offset 8
 316              		.cfi_offset 4, -8
 317              		.cfi_offset 14, -4
 108:Core/Driver/ina3221/ina3221.c **** 	return !(HAL_I2C_IsDeviceReady(&hi2c1, (INA3221_I2C_ADDR << 1), 3, 10));
 318              		.loc 1 108 0
 319 0002 0A23     		movs	r3, #10
 320 0004 0322     		movs	r2, #3
 321 0006 8021     		movs	r1, #128
 322 0008 0248     		ldr	r0, .L20
 323 000a FFF7FEFF 		bl	HAL_I2C_IsDeviceReady
 324              	.LVL30:
 325 000e 4342     		rsbs	r3, r0, #0
 326 0010 5841     		adcs	r0, r0, r3
 109:Core/Driver/ina3221/ina3221.c **** }
 327              		.loc 1 109 0
 328              		@ sp needed
 329 0012 10BD     		pop	{r4, pc}
 330              	.L21:
 331              		.align	2
 332              	.L20:
 333 0014 00000000 		.word	hi2c1
 334              		.cfi_endproc
 335              	.LFE46:
 337              		.section	.text.ina3221_init,"ax",%progbits
 338              		.align	2
 339              		.global	ina3221_init
 340              		.code	16
 341              		.thumb_func
 343              	ina3221_init:
 344              	.LFB47:
 110:Core/Driver/ina3221/ina3221.c **** 
 111:Core/Driver/ina3221/ina3221.c **** int ina3221_init(void)
 112:Core/Driver/ina3221/ina3221.c **** {
 345              		.loc 1 112 0
 346              		.cfi_startproc
 347              		@ args = 0, pretend = 0, frame = 0
 348              		@ frame_needed = 0, uses_anonymous_args = 0
 349 0000 10B5     		push	{r4, lr}
 350              	.LCFI10:
 351              		.cfi_def_cfa_offset 8
 352              		.cfi_offset 4, -8
 353              		.cfi_offset 14, -4
 113:Core/Driver/ina3221/ina3221.c **** 	CPRINTF("init\r\n");
 114:Core/Driver/ina3221/ina3221.c **** 
ARM GAS  /tmp/ccxhDnYG.s 			page 9


 115:Core/Driver/ina3221/ina3221.c **** 	if (!is_ina3221_ready()) {
 354              		.loc 1 115 0
 355 0002 FFF7FEFF 		bl	is_ina3221_ready
 356              	.LVL31:
 357 0006 0028     		cmp	r0, #0
 358 0008 09D0     		beq	.L24
 116:Core/Driver/ina3221/ina3221.c **** 		CPRINTF("Can not found ina3221!\r\n");
 117:Core/Driver/ina3221/ina3221.c **** 		return 1;
 118:Core/Driver/ina3221/ina3221.c **** 	}
 119:Core/Driver/ina3221/ina3221.c **** 
 120:Core/Driver/ina3221/ina3221.c **** 	ina3221_reset();
 359              		.loc 1 120 0
 360 000a FFF7FEFF 		bl	ina3221_reset
 361              	.LVL32:
 121:Core/Driver/ina3221/ina3221.c **** 
 122:Core/Driver/ina3221/ina3221.c **** 	HAL_Delay(10);
 362              		.loc 1 122 0
 363 000e 0A20     		movs	r0, #10
 364 0010 FFF7FEFF 		bl	HAL_Delay
 365              	.LVL33:
 123:Core/Driver/ina3221/ina3221.c **** 
 124:Core/Driver/ina3221/ina3221.c **** 	return ina3221_write16(INA3221_REG_CONFIG, INA3221_CONFIG_REG);
 366              		.loc 1 124 0
 367 0014 0349     		ldr	r1, .L25
 368 0016 0020     		movs	r0, #0
 369 0018 FFF7FEFF 		bl	ina3221_write16
 370              	.LVL34:
 371 001c 00E0     		b	.L23
 372              	.L24:
 117:Core/Driver/ina3221/ina3221.c **** 	}
 373              		.loc 1 117 0
 374 001e 0120     		movs	r0, #1
 375              	.L23:
 125:Core/Driver/ina3221/ina3221.c **** }
 376              		.loc 1 125 0
 377              		@ sp needed
 378 0020 10BD     		pop	{r4, pc}
 379              	.L26:
 380 0022 C046     		.align	2
 381              	.L25:
 382 0024 27410000 		.word	16679
 383              		.cfi_endproc
 384              	.LFE47:
 386              		.text
 387              	.Letext0:
 388              		.file 2 "/home/yuan/gcc-arm-none-eabi-5_4-2016q3/arm-none-eabi/include/machine/_default_types.h"
 389              		.file 3 "/home/yuan/gcc-arm-none-eabi-5_4-2016q3/arm-none-eabi/include/sys/_stdint.h"
 390              		.file 4 "Drivers/CMSIS/Device/ST/STM32F0xx/Include/stm32f030x6.h"
 391              		.file 5 "Drivers/STM32F0xx_HAL_Driver/Inc/stm32f0xx_hal_def.h"
 392              		.file 6 "Drivers/STM32F0xx_HAL_Driver/Inc/stm32f0xx_hal_dma.h"
 393              		.file 7 "Drivers/STM32F0xx_HAL_Driver/Inc/stm32f0xx_hal_i2c.h"
 394              		.file 8 "Drivers/STM32F0xx_HAL_Driver/Inc/stm32f0xx_hal.h"
 395              		.file 9 "Core/Driver/ina3221/ina3221.h"
ARM GAS  /tmp/ccxhDnYG.s 			page 10

