ARM GAS  /tmp/ccXBZev6.s 			page 1


   1              		.syntax unified
   2              		.cpu cortex-m0
   3              		.fpu softvfp
   4              		.eabi_attribute 20, 1
   5              		.eabi_attribute 21, 1
   6              		.eabi_attribute 23, 3
   7              		.eabi_attribute 24, 1
   8              		.eabi_attribute 25, 1
   9              		.eabi_attribute 26, 1
  10              		.eabi_attribute 30, 1
  11              		.eabi_attribute 34, 0
  12              		.eabi_attribute 18, 4
  13              		.thumb
  14              		.syntax unified
  15              		.file	"stm32f0xx_hal_adc_ex.c"
  16              		.text
  17              	.Ltext0:
  18              		.cfi_sections	.debug_frame
  19              		.section	.text.HAL_ADCEx_Calibration_Start,"ax",%progbits
  20              		.align	2
  21              		.global	HAL_ADCEx_Calibration_Start
  22              		.code	16
  23              		.thumb_func
  25              	HAL_ADCEx_Calibration_Start:
  26              	.LFB40:
  27              		.file 1 "Drivers/STM32F0xx_HAL_Driver/Src/stm32f0xx_hal_adc_ex.c"
   1:Drivers/STM32F0xx_HAL_Driver/Src/stm32f0xx_hal_adc_ex.c **** /**
   2:Drivers/STM32F0xx_HAL_Driver/Src/stm32f0xx_hal_adc_ex.c ****   ******************************************************************************
   3:Drivers/STM32F0xx_HAL_Driver/Src/stm32f0xx_hal_adc_ex.c ****   * @file    stm32f0xx_hal_adc_ex.c
   4:Drivers/STM32F0xx_HAL_Driver/Src/stm32f0xx_hal_adc_ex.c ****   * @author  MCD Application Team
   5:Drivers/STM32F0xx_HAL_Driver/Src/stm32f0xx_hal_adc_ex.c ****   * @brief   This file provides firmware functions to manage the following 
   6:Drivers/STM32F0xx_HAL_Driver/Src/stm32f0xx_hal_adc_ex.c ****   *          functionalities of the Analog to Digital Convertor (ADC)
   7:Drivers/STM32F0xx_HAL_Driver/Src/stm32f0xx_hal_adc_ex.c ****   *          peripheral:
   8:Drivers/STM32F0xx_HAL_Driver/Src/stm32f0xx_hal_adc_ex.c ****   *           + Operation functions
   9:Drivers/STM32F0xx_HAL_Driver/Src/stm32f0xx_hal_adc_ex.c ****   *             ++ Calibration (ADC automatic self-calibration)
  10:Drivers/STM32F0xx_HAL_Driver/Src/stm32f0xx_hal_adc_ex.c ****   *          Other functions (generic functions) are available in file 
  11:Drivers/STM32F0xx_HAL_Driver/Src/stm32f0xx_hal_adc_ex.c ****   *          "stm32f0xx_hal_adc.c".
  12:Drivers/STM32F0xx_HAL_Driver/Src/stm32f0xx_hal_adc_ex.c ****   *
  13:Drivers/STM32F0xx_HAL_Driver/Src/stm32f0xx_hal_adc_ex.c ****   @verbatim
  14:Drivers/STM32F0xx_HAL_Driver/Src/stm32f0xx_hal_adc_ex.c ****   [..] 
  15:Drivers/STM32F0xx_HAL_Driver/Src/stm32f0xx_hal_adc_ex.c ****   (@) Sections "ADC peripheral features" and "How to use this driver" are
  16:Drivers/STM32F0xx_HAL_Driver/Src/stm32f0xx_hal_adc_ex.c ****       available in file of generic functions "stm32l1xx_hal_adc.c".
  17:Drivers/STM32F0xx_HAL_Driver/Src/stm32f0xx_hal_adc_ex.c ****   [..]
  18:Drivers/STM32F0xx_HAL_Driver/Src/stm32f0xx_hal_adc_ex.c ****   @endverbatim
  19:Drivers/STM32F0xx_HAL_Driver/Src/stm32f0xx_hal_adc_ex.c ****   ******************************************************************************
  20:Drivers/STM32F0xx_HAL_Driver/Src/stm32f0xx_hal_adc_ex.c ****   * @attention
  21:Drivers/STM32F0xx_HAL_Driver/Src/stm32f0xx_hal_adc_ex.c ****   *
  22:Drivers/STM32F0xx_HAL_Driver/Src/stm32f0xx_hal_adc_ex.c ****   * <h2><center>&copy; Copyright (c) 2016 STMicroelectronics.
  23:Drivers/STM32F0xx_HAL_Driver/Src/stm32f0xx_hal_adc_ex.c ****   * All rights reserved.</center></h2>
  24:Drivers/STM32F0xx_HAL_Driver/Src/stm32f0xx_hal_adc_ex.c ****   *
  25:Drivers/STM32F0xx_HAL_Driver/Src/stm32f0xx_hal_adc_ex.c ****   * This software component is licensed by ST under BSD 3-Clause license,
  26:Drivers/STM32F0xx_HAL_Driver/Src/stm32f0xx_hal_adc_ex.c ****   * the "License"; You may not use this file except in compliance with the
  27:Drivers/STM32F0xx_HAL_Driver/Src/stm32f0xx_hal_adc_ex.c ****   * License. You may obtain a copy of the License at:
  28:Drivers/STM32F0xx_HAL_Driver/Src/stm32f0xx_hal_adc_ex.c ****   *                        opensource.org/licenses/BSD-3-Clause
  29:Drivers/STM32F0xx_HAL_Driver/Src/stm32f0xx_hal_adc_ex.c ****   *
  30:Drivers/STM32F0xx_HAL_Driver/Src/stm32f0xx_hal_adc_ex.c ****   ******************************************************************************
  31:Drivers/STM32F0xx_HAL_Driver/Src/stm32f0xx_hal_adc_ex.c ****   */
ARM GAS  /tmp/ccXBZev6.s 			page 2


  32:Drivers/STM32F0xx_HAL_Driver/Src/stm32f0xx_hal_adc_ex.c **** 
  33:Drivers/STM32F0xx_HAL_Driver/Src/stm32f0xx_hal_adc_ex.c **** /* Includes ------------------------------------------------------------------*/
  34:Drivers/STM32F0xx_HAL_Driver/Src/stm32f0xx_hal_adc_ex.c **** #include "stm32f0xx_hal.h"
  35:Drivers/STM32F0xx_HAL_Driver/Src/stm32f0xx_hal_adc_ex.c **** 
  36:Drivers/STM32F0xx_HAL_Driver/Src/stm32f0xx_hal_adc_ex.c **** /** @addtogroup STM32F0xx_HAL_Driver
  37:Drivers/STM32F0xx_HAL_Driver/Src/stm32f0xx_hal_adc_ex.c ****   * @{
  38:Drivers/STM32F0xx_HAL_Driver/Src/stm32f0xx_hal_adc_ex.c ****   */
  39:Drivers/STM32F0xx_HAL_Driver/Src/stm32f0xx_hal_adc_ex.c **** 
  40:Drivers/STM32F0xx_HAL_Driver/Src/stm32f0xx_hal_adc_ex.c **** /** @defgroup ADCEx ADCEx
  41:Drivers/STM32F0xx_HAL_Driver/Src/stm32f0xx_hal_adc_ex.c ****   * @brief ADC HAL module driver
  42:Drivers/STM32F0xx_HAL_Driver/Src/stm32f0xx_hal_adc_ex.c ****   * @{
  43:Drivers/STM32F0xx_HAL_Driver/Src/stm32f0xx_hal_adc_ex.c ****   */
  44:Drivers/STM32F0xx_HAL_Driver/Src/stm32f0xx_hal_adc_ex.c **** 
  45:Drivers/STM32F0xx_HAL_Driver/Src/stm32f0xx_hal_adc_ex.c **** #ifdef HAL_ADC_MODULE_ENABLED
  46:Drivers/STM32F0xx_HAL_Driver/Src/stm32f0xx_hal_adc_ex.c **** 
  47:Drivers/STM32F0xx_HAL_Driver/Src/stm32f0xx_hal_adc_ex.c **** /* Private typedef -----------------------------------------------------------*/
  48:Drivers/STM32F0xx_HAL_Driver/Src/stm32f0xx_hal_adc_ex.c **** /* Private define ------------------------------------------------------------*/
  49:Drivers/STM32F0xx_HAL_Driver/Src/stm32f0xx_hal_adc_ex.c **** /** @defgroup ADCEx_Private_Constants ADCEx Private Constants
  50:Drivers/STM32F0xx_HAL_Driver/Src/stm32f0xx_hal_adc_ex.c ****   * @{
  51:Drivers/STM32F0xx_HAL_Driver/Src/stm32f0xx_hal_adc_ex.c ****   */ 
  52:Drivers/STM32F0xx_HAL_Driver/Src/stm32f0xx_hal_adc_ex.c ****  
  53:Drivers/STM32F0xx_HAL_Driver/Src/stm32f0xx_hal_adc_ex.c **** /* Fixed timeout values for ADC calibration, enable settling time, disable  */
  54:Drivers/STM32F0xx_HAL_Driver/Src/stm32f0xx_hal_adc_ex.c ****   /* settling time.                                                           */
  55:Drivers/STM32F0xx_HAL_Driver/Src/stm32f0xx_hal_adc_ex.c ****   /* Values defined to be higher than worst cases: low clock frequency,       */
  56:Drivers/STM32F0xx_HAL_Driver/Src/stm32f0xx_hal_adc_ex.c ****   /* maximum prescaler.                                                       */
  57:Drivers/STM32F0xx_HAL_Driver/Src/stm32f0xx_hal_adc_ex.c ****   /* Ex of profile low frequency : Clock source at 0.1 MHz, ADC clock         */
  58:Drivers/STM32F0xx_HAL_Driver/Src/stm32f0xx_hal_adc_ex.c ****   /* prescaler 4.                                                             */
  59:Drivers/STM32F0xx_HAL_Driver/Src/stm32f0xx_hal_adc_ex.c ****   /* Unit: ms                                                                 */
  60:Drivers/STM32F0xx_HAL_Driver/Src/stm32f0xx_hal_adc_ex.c ****   #define ADC_DISABLE_TIMEOUT           2
  61:Drivers/STM32F0xx_HAL_Driver/Src/stm32f0xx_hal_adc_ex.c ****   #define ADC_CALIBRATION_TIMEOUT       2U      
  62:Drivers/STM32F0xx_HAL_Driver/Src/stm32f0xx_hal_adc_ex.c **** /**
  63:Drivers/STM32F0xx_HAL_Driver/Src/stm32f0xx_hal_adc_ex.c ****   * @}
  64:Drivers/STM32F0xx_HAL_Driver/Src/stm32f0xx_hal_adc_ex.c ****   */
  65:Drivers/STM32F0xx_HAL_Driver/Src/stm32f0xx_hal_adc_ex.c **** 
  66:Drivers/STM32F0xx_HAL_Driver/Src/stm32f0xx_hal_adc_ex.c **** /* Private macros -------------------------------------------------------------*/
  67:Drivers/STM32F0xx_HAL_Driver/Src/stm32f0xx_hal_adc_ex.c **** /* Private variables ---------------------------------------------------------*/
  68:Drivers/STM32F0xx_HAL_Driver/Src/stm32f0xx_hal_adc_ex.c **** /* Private function prototypes -----------------------------------------------*/
  69:Drivers/STM32F0xx_HAL_Driver/Src/stm32f0xx_hal_adc_ex.c **** /* Private functions ---------------------------------------------------------*/
  70:Drivers/STM32F0xx_HAL_Driver/Src/stm32f0xx_hal_adc_ex.c **** 
  71:Drivers/STM32F0xx_HAL_Driver/Src/stm32f0xx_hal_adc_ex.c **** /** @defgroup ADCEx_Exported_Functions ADCEx Exported Functions
  72:Drivers/STM32F0xx_HAL_Driver/Src/stm32f0xx_hal_adc_ex.c ****   * @{
  73:Drivers/STM32F0xx_HAL_Driver/Src/stm32f0xx_hal_adc_ex.c ****   */
  74:Drivers/STM32F0xx_HAL_Driver/Src/stm32f0xx_hal_adc_ex.c **** 
  75:Drivers/STM32F0xx_HAL_Driver/Src/stm32f0xx_hal_adc_ex.c **** /** @defgroup ADCEx_Exported_Functions_Group1 Extended Initialization/de-initialization functions 
  76:Drivers/STM32F0xx_HAL_Driver/Src/stm32f0xx_hal_adc_ex.c ****  *  @brief    Extended Initialization and Configuration functions
  77:Drivers/STM32F0xx_HAL_Driver/Src/stm32f0xx_hal_adc_ex.c ****  *
  78:Drivers/STM32F0xx_HAL_Driver/Src/stm32f0xx_hal_adc_ex.c **** @verbatim
  79:Drivers/STM32F0xx_HAL_Driver/Src/stm32f0xx_hal_adc_ex.c ****  ===============================================================================
  80:Drivers/STM32F0xx_HAL_Driver/Src/stm32f0xx_hal_adc_ex.c ****                       ##### IO operation functions #####
  81:Drivers/STM32F0xx_HAL_Driver/Src/stm32f0xx_hal_adc_ex.c ****  ===============================================================================
  82:Drivers/STM32F0xx_HAL_Driver/Src/stm32f0xx_hal_adc_ex.c ****     [..]  This section provides functions allowing to:
  83:Drivers/STM32F0xx_HAL_Driver/Src/stm32f0xx_hal_adc_ex.c ****       (+) Perform the ADC calibration. 
  84:Drivers/STM32F0xx_HAL_Driver/Src/stm32f0xx_hal_adc_ex.c **** @endverbatim
  85:Drivers/STM32F0xx_HAL_Driver/Src/stm32f0xx_hal_adc_ex.c ****   * @{
  86:Drivers/STM32F0xx_HAL_Driver/Src/stm32f0xx_hal_adc_ex.c ****   */
  87:Drivers/STM32F0xx_HAL_Driver/Src/stm32f0xx_hal_adc_ex.c **** 
  88:Drivers/STM32F0xx_HAL_Driver/Src/stm32f0xx_hal_adc_ex.c **** /**
ARM GAS  /tmp/ccXBZev6.s 			page 3


  89:Drivers/STM32F0xx_HAL_Driver/Src/stm32f0xx_hal_adc_ex.c ****   * @brief  Perform an ADC automatic self-calibration
  90:Drivers/STM32F0xx_HAL_Driver/Src/stm32f0xx_hal_adc_ex.c ****   *         Calibration prerequisite: ADC must be disabled (execute this
  91:Drivers/STM32F0xx_HAL_Driver/Src/stm32f0xx_hal_adc_ex.c ****   *         function before HAL_ADC_Start() or after HAL_ADC_Stop() ).
  92:Drivers/STM32F0xx_HAL_Driver/Src/stm32f0xx_hal_adc_ex.c ****   * @note   Calibration factor can be read after calibration, using function
  93:Drivers/STM32F0xx_HAL_Driver/Src/stm32f0xx_hal_adc_ex.c ****   *         HAL_ADC_GetValue() (value on 7 bits: from DR[6;0]).
  94:Drivers/STM32F0xx_HAL_Driver/Src/stm32f0xx_hal_adc_ex.c ****   * @param  hadc ADC handle
  95:Drivers/STM32F0xx_HAL_Driver/Src/stm32f0xx_hal_adc_ex.c ****   * @retval HAL status
  96:Drivers/STM32F0xx_HAL_Driver/Src/stm32f0xx_hal_adc_ex.c ****   */
  97:Drivers/STM32F0xx_HAL_Driver/Src/stm32f0xx_hal_adc_ex.c **** HAL_StatusTypeDef HAL_ADCEx_Calibration_Start(ADC_HandleTypeDef* hadc)
  98:Drivers/STM32F0xx_HAL_Driver/Src/stm32f0xx_hal_adc_ex.c **** {
  28              		.loc 1 98 0
  29              		.cfi_startproc
  30              		@ args = 0, pretend = 0, frame = 0
  31              		@ frame_needed = 0, uses_anonymous_args = 0
  32              	.LVL0:
  33 0000 70B5     		push	{r4, r5, r6, lr}
  34              	.LCFI0:
  35              		.cfi_def_cfa_offset 16
  36              		.cfi_offset 4, -16
  37              		.cfi_offset 5, -12
  38              		.cfi_offset 6, -8
  39              		.cfi_offset 14, -4
  40 0002 0400     		movs	r4, r0
  41              	.LVL1:
  99:Drivers/STM32F0xx_HAL_Driver/Src/stm32f0xx_hal_adc_ex.c ****   HAL_StatusTypeDef tmp_hal_status = HAL_OK;
 100:Drivers/STM32F0xx_HAL_Driver/Src/stm32f0xx_hal_adc_ex.c ****   uint32_t tickstart = 0U;
 101:Drivers/STM32F0xx_HAL_Driver/Src/stm32f0xx_hal_adc_ex.c ****   uint32_t backup_setting_adc_dma_transfer = 0; /* Note: Variable not declared as volatile because 
 102:Drivers/STM32F0xx_HAL_Driver/Src/stm32f0xx_hal_adc_ex.c ****   
 103:Drivers/STM32F0xx_HAL_Driver/Src/stm32f0xx_hal_adc_ex.c ****   /* Check the parameters */
 104:Drivers/STM32F0xx_HAL_Driver/Src/stm32f0xx_hal_adc_ex.c ****   assert_param(IS_ADC_ALL_INSTANCE(hadc->Instance));
 105:Drivers/STM32F0xx_HAL_Driver/Src/stm32f0xx_hal_adc_ex.c **** 
 106:Drivers/STM32F0xx_HAL_Driver/Src/stm32f0xx_hal_adc_ex.c ****   /* Process locked */
 107:Drivers/STM32F0xx_HAL_Driver/Src/stm32f0xx_hal_adc_ex.c ****   __HAL_LOCK(hadc);
  42              		.loc 1 107 0
  43 0004 3423     		movs	r3, #52
  44 0006 C35C     		ldrb	r3, [r0, r3]
  45 0008 012B     		cmp	r3, #1
  46 000a 59D0     		beq	.L8
  47              		.loc 1 107 0 is_stmt 0 discriminator 2
  48 000c 0122     		movs	r2, #1
  49 000e 3423     		movs	r3, #52
  50 0010 C254     		strb	r2, [r0, r3]
 108:Drivers/STM32F0xx_HAL_Driver/Src/stm32f0xx_hal_adc_ex.c ****   
 109:Drivers/STM32F0xx_HAL_Driver/Src/stm32f0xx_hal_adc_ex.c ****   /* Calibration prerequisite: ADC must be disabled. */
 110:Drivers/STM32F0xx_HAL_Driver/Src/stm32f0xx_hal_adc_ex.c ****   if (ADC_IS_ENABLE(hadc) == RESET)
  51              		.loc 1 110 0 is_stmt 1 discriminator 2
  52 0012 0268     		ldr	r2, [r0]
  53 0014 9368     		ldr	r3, [r2, #8]
  54 0016 0321     		movs	r1, #3
  55 0018 0B40     		ands	r3, r1
  56 001a 012B     		cmp	r3, #1
  57 001c 07D1     		bne	.L9
  58              		.loc 1 110 0 is_stmt 0 discriminator 1
  59 001e 1368     		ldr	r3, [r2]
  60 0020 DB07     		lsls	r3, r3, #31
  61 0022 06D4     		bmi	.L10
  62              		.loc 1 110 0 discriminator 4
ARM GAS  /tmp/ccXBZev6.s 			page 4


  63 0024 D368     		ldr	r3, [r2, #12]
  64 0026 1B04     		lsls	r3, r3, #16
  65 0028 05D4     		bmi	.L11
  66              		.loc 1 110 0
  67 002a 0023     		movs	r3, #0
  68 002c 04E0     		b	.L3
  69              	.L9:
  70 002e 0023     		movs	r3, #0
  71 0030 02E0     		b	.L3
  72              	.L10:
  73 0032 0123     		movs	r3, #1
  74 0034 00E0     		b	.L3
  75              	.L11:
  76 0036 0123     		movs	r3, #1
  77              	.L3:
  78              		.loc 1 110 0 discriminator 8
  79 0038 002B     		cmp	r3, #0
  80 003a 38D1     		bne	.L4
 111:Drivers/STM32F0xx_HAL_Driver/Src/stm32f0xx_hal_adc_ex.c ****   {
 112:Drivers/STM32F0xx_HAL_Driver/Src/stm32f0xx_hal_adc_ex.c ****     /* Set ADC state */
 113:Drivers/STM32F0xx_HAL_Driver/Src/stm32f0xx_hal_adc_ex.c ****     ADC_STATE_CLR_SET(hadc->State, 
  81              		.loc 1 113 0 is_stmt 1
  82 003c A16B     		ldr	r1, [r4, #56]
  83 003e 214B     		ldr	r3, .L12
  84 0040 0B40     		ands	r3, r1
  85 0042 0221     		movs	r1, #2
  86 0044 0B43     		orrs	r3, r1
  87 0046 A363     		str	r3, [r4, #56]
 114:Drivers/STM32F0xx_HAL_Driver/Src/stm32f0xx_hal_adc_ex.c ****                       HAL_ADC_STATE_REG_BUSY,
 115:Drivers/STM32F0xx_HAL_Driver/Src/stm32f0xx_hal_adc_ex.c ****                       HAL_ADC_STATE_BUSY_INTERNAL);
 116:Drivers/STM32F0xx_HAL_Driver/Src/stm32f0xx_hal_adc_ex.c ****     
 117:Drivers/STM32F0xx_HAL_Driver/Src/stm32f0xx_hal_adc_ex.c ****     /* Disable ADC DMA transfer request during calibration */
 118:Drivers/STM32F0xx_HAL_Driver/Src/stm32f0xx_hal_adc_ex.c ****     /* Note: Specificity of this STM32 serie: Calibration factor is           */
 119:Drivers/STM32F0xx_HAL_Driver/Src/stm32f0xx_hal_adc_ex.c ****     /*       available in data register and also transfered by DMA.           */
 120:Drivers/STM32F0xx_HAL_Driver/Src/stm32f0xx_hal_adc_ex.c ****     /*       To not insert ADC calibration factor among ADC conversion data   */
 121:Drivers/STM32F0xx_HAL_Driver/Src/stm32f0xx_hal_adc_ex.c ****     /*       in array variable, DMA transfer must be disabled during          */
 122:Drivers/STM32F0xx_HAL_Driver/Src/stm32f0xx_hal_adc_ex.c ****     /*       calibration.                                                     */
 123:Drivers/STM32F0xx_HAL_Driver/Src/stm32f0xx_hal_adc_ex.c ****     backup_setting_adc_dma_transfer = READ_BIT(hadc->Instance->CFGR1, ADC_CFGR1_DMAEN | ADC_CFGR1_D
  88              		.loc 1 123 0
  89 0048 D668     		ldr	r6, [r2, #12]
  90 004a 0131     		adds	r1, r1, #1
  91 004c 0E40     		ands	r6, r1
  92              	.LVL2:
 124:Drivers/STM32F0xx_HAL_Driver/Src/stm32f0xx_hal_adc_ex.c ****     CLEAR_BIT(hadc->Instance->CFGR1, ADC_CFGR1_DMAEN | ADC_CFGR1_DMACFG);
  93              		.loc 1 124 0
  94 004e D368     		ldr	r3, [r2, #12]
  95 0050 8B43     		bics	r3, r1
  96 0052 D360     		str	r3, [r2, #12]
 125:Drivers/STM32F0xx_HAL_Driver/Src/stm32f0xx_hal_adc_ex.c **** 
 126:Drivers/STM32F0xx_HAL_Driver/Src/stm32f0xx_hal_adc_ex.c ****     /* Start ADC calibration */
 127:Drivers/STM32F0xx_HAL_Driver/Src/stm32f0xx_hal_adc_ex.c ****     hadc->Instance->CR |= ADC_CR_ADCAL;
  97              		.loc 1 127 0
  98 0054 2268     		ldr	r2, [r4]
  99 0056 9368     		ldr	r3, [r2, #8]
 100 0058 8021     		movs	r1, #128
 101 005a 0906     		lsls	r1, r1, #24
 102 005c 0B43     		orrs	r3, r1
ARM GAS  /tmp/ccXBZev6.s 			page 5


 103 005e 9360     		str	r3, [r2, #8]
 128:Drivers/STM32F0xx_HAL_Driver/Src/stm32f0xx_hal_adc_ex.c **** 
 129:Drivers/STM32F0xx_HAL_Driver/Src/stm32f0xx_hal_adc_ex.c ****     tickstart = HAL_GetTick();  
 104              		.loc 1 129 0
 105 0060 FFF7FEFF 		bl	HAL_GetTick
 106              	.LVL3:
 107 0064 0500     		movs	r5, r0
 108              	.LVL4:
 130:Drivers/STM32F0xx_HAL_Driver/Src/stm32f0xx_hal_adc_ex.c **** 
 131:Drivers/STM32F0xx_HAL_Driver/Src/stm32f0xx_hal_adc_ex.c ****     /* Wait for calibration completion */
 132:Drivers/STM32F0xx_HAL_Driver/Src/stm32f0xx_hal_adc_ex.c ****     while(HAL_IS_BIT_SET(hadc->Instance->CR, ADC_CR_ADCAL))
 109              		.loc 1 132 0
 110 0066 13E0     		b	.L5
 111              	.LVL5:
 112              	.L6:
 133:Drivers/STM32F0xx_HAL_Driver/Src/stm32f0xx_hal_adc_ex.c ****     {
 134:Drivers/STM32F0xx_HAL_Driver/Src/stm32f0xx_hal_adc_ex.c ****       if((HAL_GetTick() - tickstart) > ADC_CALIBRATION_TIMEOUT)
 113              		.loc 1 134 0
 114 0068 FFF7FEFF 		bl	HAL_GetTick
 115              	.LVL6:
 116 006c 401B     		subs	r0, r0, r5
 117 006e 0228     		cmp	r0, #2
 118 0070 0ED9     		bls	.L5
 135:Drivers/STM32F0xx_HAL_Driver/Src/stm32f0xx_hal_adc_ex.c ****       {
 136:Drivers/STM32F0xx_HAL_Driver/Src/stm32f0xx_hal_adc_ex.c ****         /* New check to avoid false timeout detection in case of preemption */
 137:Drivers/STM32F0xx_HAL_Driver/Src/stm32f0xx_hal_adc_ex.c ****         if(HAL_IS_BIT_SET(hadc->Instance->CR, ADC_CR_ADCAL))
 119              		.loc 1 137 0
 120 0072 2368     		ldr	r3, [r4]
 121 0074 9B68     		ldr	r3, [r3, #8]
 122 0076 002B     		cmp	r3, #0
 123 0078 0ADA     		bge	.L5
 138:Drivers/STM32F0xx_HAL_Driver/Src/stm32f0xx_hal_adc_ex.c ****         {
 139:Drivers/STM32F0xx_HAL_Driver/Src/stm32f0xx_hal_adc_ex.c ****           /* Update ADC state machine to error */
 140:Drivers/STM32F0xx_HAL_Driver/Src/stm32f0xx_hal_adc_ex.c ****           ADC_STATE_CLR_SET(hadc->State,
 124              		.loc 1 140 0
 125 007a A36B     		ldr	r3, [r4, #56]
 126 007c 1222     		movs	r2, #18
 127 007e 9343     		bics	r3, r2
 128 0080 023A     		subs	r2, r2, #2
 129 0082 1343     		orrs	r3, r2
 130 0084 A363     		str	r3, [r4, #56]
 141:Drivers/STM32F0xx_HAL_Driver/Src/stm32f0xx_hal_adc_ex.c ****                             HAL_ADC_STATE_BUSY_INTERNAL,
 142:Drivers/STM32F0xx_HAL_Driver/Src/stm32f0xx_hal_adc_ex.c ****                             HAL_ADC_STATE_ERROR_INTERNAL);
 143:Drivers/STM32F0xx_HAL_Driver/Src/stm32f0xx_hal_adc_ex.c **** 
 144:Drivers/STM32F0xx_HAL_Driver/Src/stm32f0xx_hal_adc_ex.c ****           /* Process unlocked */
 145:Drivers/STM32F0xx_HAL_Driver/Src/stm32f0xx_hal_adc_ex.c ****           __HAL_UNLOCK(hadc);
 131              		.loc 1 145 0
 132 0086 0022     		movs	r2, #0
 133 0088 3423     		movs	r3, #52
 134 008a E254     		strb	r2, [r4, r3]
 146:Drivers/STM32F0xx_HAL_Driver/Src/stm32f0xx_hal_adc_ex.c **** 
 147:Drivers/STM32F0xx_HAL_Driver/Src/stm32f0xx_hal_adc_ex.c ****           return HAL_ERROR;
 135              		.loc 1 147 0
 136 008c 0120     		movs	r0, #1
 137 008e 18E0     		b	.L2
 138              	.L5:
 132:Drivers/STM32F0xx_HAL_Driver/Src/stm32f0xx_hal_adc_ex.c ****     {
ARM GAS  /tmp/ccXBZev6.s 			page 6


 139              		.loc 1 132 0
 140 0090 2368     		ldr	r3, [r4]
 141 0092 9A68     		ldr	r2, [r3, #8]
 142 0094 002A     		cmp	r2, #0
 143 0096 E7DB     		blt	.L6
 148:Drivers/STM32F0xx_HAL_Driver/Src/stm32f0xx_hal_adc_ex.c ****         }
 149:Drivers/STM32F0xx_HAL_Driver/Src/stm32f0xx_hal_adc_ex.c ****       }
 150:Drivers/STM32F0xx_HAL_Driver/Src/stm32f0xx_hal_adc_ex.c ****     }
 151:Drivers/STM32F0xx_HAL_Driver/Src/stm32f0xx_hal_adc_ex.c ****     
 152:Drivers/STM32F0xx_HAL_Driver/Src/stm32f0xx_hal_adc_ex.c ****     /* Restore ADC DMA transfer request after calibration */
 153:Drivers/STM32F0xx_HAL_Driver/Src/stm32f0xx_hal_adc_ex.c ****     SET_BIT(hadc->Instance->CFGR1, backup_setting_adc_dma_transfer);
 144              		.loc 1 153 0
 145 0098 DA68     		ldr	r2, [r3, #12]
 146 009a 1643     		orrs	r6, r2
 147              	.LVL7:
 148 009c DE60     		str	r6, [r3, #12]
 154:Drivers/STM32F0xx_HAL_Driver/Src/stm32f0xx_hal_adc_ex.c **** 
 155:Drivers/STM32F0xx_HAL_Driver/Src/stm32f0xx_hal_adc_ex.c ****     /* Set ADC state */
 156:Drivers/STM32F0xx_HAL_Driver/Src/stm32f0xx_hal_adc_ex.c ****     ADC_STATE_CLR_SET(hadc->State,
 149              		.loc 1 156 0
 150 009e A36B     		ldr	r3, [r4, #56]
 151 00a0 0322     		movs	r2, #3
 152 00a2 9343     		bics	r3, r2
 153 00a4 023A     		subs	r2, r2, #2
 154 00a6 1343     		orrs	r3, r2
 155 00a8 A363     		str	r3, [r4, #56]
  99:Drivers/STM32F0xx_HAL_Driver/Src/stm32f0xx_hal_adc_ex.c ****   uint32_t tickstart = 0U;
 156              		.loc 1 99 0
 157 00aa 0020     		movs	r0, #0
 158 00ac 04E0     		b	.L7
 159              	.LVL8:
 160              	.L4:
 157:Drivers/STM32F0xx_HAL_Driver/Src/stm32f0xx_hal_adc_ex.c ****                       HAL_ADC_STATE_BUSY_INTERNAL,
 158:Drivers/STM32F0xx_HAL_Driver/Src/stm32f0xx_hal_adc_ex.c ****                       HAL_ADC_STATE_READY);
 159:Drivers/STM32F0xx_HAL_Driver/Src/stm32f0xx_hal_adc_ex.c ****   }
 160:Drivers/STM32F0xx_HAL_Driver/Src/stm32f0xx_hal_adc_ex.c ****   else
 161:Drivers/STM32F0xx_HAL_Driver/Src/stm32f0xx_hal_adc_ex.c ****   {
 162:Drivers/STM32F0xx_HAL_Driver/Src/stm32f0xx_hal_adc_ex.c ****     /* Update ADC state machine to error */
 163:Drivers/STM32F0xx_HAL_Driver/Src/stm32f0xx_hal_adc_ex.c ****     SET_BIT(hadc->State, HAL_ADC_STATE_ERROR_CONFIG);
 161              		.loc 1 163 0
 162 00ae A26B     		ldr	r2, [r4, #56]
 163 00b0 2023     		movs	r3, #32
 164 00b2 1343     		orrs	r3, r2
 165 00b4 A363     		str	r3, [r4, #56]
 166              	.LVL9:
 164:Drivers/STM32F0xx_HAL_Driver/Src/stm32f0xx_hal_adc_ex.c ****     
 165:Drivers/STM32F0xx_HAL_Driver/Src/stm32f0xx_hal_adc_ex.c ****     tmp_hal_status = HAL_ERROR;
 167              		.loc 1 165 0
 168 00b6 0120     		movs	r0, #1
 169              	.LVL10:
 170              	.L7:
 166:Drivers/STM32F0xx_HAL_Driver/Src/stm32f0xx_hal_adc_ex.c ****   }
 167:Drivers/STM32F0xx_HAL_Driver/Src/stm32f0xx_hal_adc_ex.c ****   
 168:Drivers/STM32F0xx_HAL_Driver/Src/stm32f0xx_hal_adc_ex.c ****   /* Process unlocked */
 169:Drivers/STM32F0xx_HAL_Driver/Src/stm32f0xx_hal_adc_ex.c ****   __HAL_UNLOCK(hadc);
 171              		.loc 1 169 0
 172 00b8 0022     		movs	r2, #0
ARM GAS  /tmp/ccXBZev6.s 			page 7


 173 00ba 3423     		movs	r3, #52
 174 00bc E254     		strb	r2, [r4, r3]
 170:Drivers/STM32F0xx_HAL_Driver/Src/stm32f0xx_hal_adc_ex.c ****   
 171:Drivers/STM32F0xx_HAL_Driver/Src/stm32f0xx_hal_adc_ex.c ****   /* Return function status */
 172:Drivers/STM32F0xx_HAL_Driver/Src/stm32f0xx_hal_adc_ex.c ****   return tmp_hal_status;
 175              		.loc 1 172 0
 176 00be 00E0     		b	.L2
 177              	.LVL11:
 178              	.L8:
 107:Drivers/STM32F0xx_HAL_Driver/Src/stm32f0xx_hal_adc_ex.c ****   
 179              		.loc 1 107 0
 180 00c0 0220     		movs	r0, #2
 181              	.LVL12:
 182              	.L2:
 173:Drivers/STM32F0xx_HAL_Driver/Src/stm32f0xx_hal_adc_ex.c **** }
 183              		.loc 1 173 0
 184              		@ sp needed
 185              	.LVL13:
 186 00c2 70BD     		pop	{r4, r5, r6, pc}
 187              	.L13:
 188              		.align	2
 189              	.L12:
 190 00c4 FDFEFFFF 		.word	-259
 191              		.cfi_endproc
 192              	.LFE40:
 194              		.text
 195              	.Letext0:
 196              		.file 2 "/home/yuan/gcc-arm-none-eabi-5_4-2016q3/arm-none-eabi/include/machine/_default_types.h"
 197              		.file 3 "/home/yuan/gcc-arm-none-eabi-5_4-2016q3/arm-none-eabi/include/sys/_stdint.h"
 198              		.file 4 "Drivers/CMSIS/Device/ST/STM32F0xx/Include/stm32f030x6.h"
 199              		.file 5 "Drivers/CMSIS/Device/ST/STM32F0xx/Include/stm32f0xx.h"
 200              		.file 6 "Drivers/STM32F0xx_HAL_Driver/Inc/stm32f0xx_hal_def.h"
 201              		.file 7 "Drivers/STM32F0xx_HAL_Driver/Inc/stm32f0xx_hal_dma.h"
 202              		.file 8 "Drivers/STM32F0xx_HAL_Driver/Inc/stm32f0xx_hal_adc.h"
 203              		.file 9 "Drivers/STM32F0xx_HAL_Driver/Inc/stm32f0xx_hal.h"
ARM GAS  /tmp/ccXBZev6.s 			page 8

