ARM GAS  /tmp/ccxc1KcM.s 			page 1


   1              		.syntax unified
   2              		.cpu cortex-m0
   3              		.fpu softvfp
   4              		.eabi_attribute 20, 1
   5              		.eabi_attribute 21, 1
   6              		.eabi_attribute 23, 3
   7              		.eabi_attribute 24, 1
   8              		.eabi_attribute 25, 1
   9              		.eabi_attribute 26, 1
  10              		.eabi_attribute 30, 1
  11              		.eabi_attribute 34, 0
  12              		.eabi_attribute 18, 4
  13              		.thumb
  14              		.syntax unified
  15              		.file	"stm32f0xx_hal_msp.c"
  16              		.text
  17              	.Ltext0:
  18              		.cfi_sections	.debug_frame
  19              		.section	.text.HAL_MspInit,"ax",%progbits
  20              		.align	2
  21              		.global	HAL_MspInit
  22              		.code	16
  23              		.thumb_func
  25              	HAL_MspInit:
  26              	.LFB40:
  27              		.file 1 "Core/Src/stm32f0xx_hal_msp.c"
   1:Core/Src/stm32f0xx_hal_msp.c **** /* USER CODE BEGIN Header */
   2:Core/Src/stm32f0xx_hal_msp.c **** /**
   3:Core/Src/stm32f0xx_hal_msp.c ****   ******************************************************************************
   4:Core/Src/stm32f0xx_hal_msp.c ****   * @file         stm32f0xx_hal_msp.c
   5:Core/Src/stm32f0xx_hal_msp.c ****   * @brief        This file provides code for the MSP Initialization
   6:Core/Src/stm32f0xx_hal_msp.c ****   *               and de-Initialization codes.
   7:Core/Src/stm32f0xx_hal_msp.c ****   ******************************************************************************
   8:Core/Src/stm32f0xx_hal_msp.c ****   * @attention
   9:Core/Src/stm32f0xx_hal_msp.c ****   *
  10:Core/Src/stm32f0xx_hal_msp.c ****   * Copyright (c) 2022 STMicroelectronics.
  11:Core/Src/stm32f0xx_hal_msp.c ****   * All rights reserved.
  12:Core/Src/stm32f0xx_hal_msp.c ****   *
  13:Core/Src/stm32f0xx_hal_msp.c ****   * This software is licensed under terms that can be found in the LICENSE file
  14:Core/Src/stm32f0xx_hal_msp.c ****   * in the root directory of this software component.
  15:Core/Src/stm32f0xx_hal_msp.c ****   * If no LICENSE file comes with this software, it is provided AS-IS.
  16:Core/Src/stm32f0xx_hal_msp.c ****   *
  17:Core/Src/stm32f0xx_hal_msp.c ****   ******************************************************************************
  18:Core/Src/stm32f0xx_hal_msp.c ****   */
  19:Core/Src/stm32f0xx_hal_msp.c **** /* USER CODE END Header */
  20:Core/Src/stm32f0xx_hal_msp.c **** 
  21:Core/Src/stm32f0xx_hal_msp.c **** /* Includes ------------------------------------------------------------------*/
  22:Core/Src/stm32f0xx_hal_msp.c **** #include "main.h"
  23:Core/Src/stm32f0xx_hal_msp.c **** /* USER CODE BEGIN Includes */
  24:Core/Src/stm32f0xx_hal_msp.c **** 
  25:Core/Src/stm32f0xx_hal_msp.c **** /* USER CODE END Includes */
  26:Core/Src/stm32f0xx_hal_msp.c **** 
  27:Core/Src/stm32f0xx_hal_msp.c **** /* Private typedef -----------------------------------------------------------*/
  28:Core/Src/stm32f0xx_hal_msp.c **** /* USER CODE BEGIN TD */
  29:Core/Src/stm32f0xx_hal_msp.c **** 
  30:Core/Src/stm32f0xx_hal_msp.c **** /* USER CODE END TD */
  31:Core/Src/stm32f0xx_hal_msp.c **** 
ARM GAS  /tmp/ccxc1KcM.s 			page 2


  32:Core/Src/stm32f0xx_hal_msp.c **** /* Private define ------------------------------------------------------------*/
  33:Core/Src/stm32f0xx_hal_msp.c **** /* USER CODE BEGIN Define */
  34:Core/Src/stm32f0xx_hal_msp.c **** 
  35:Core/Src/stm32f0xx_hal_msp.c **** /* USER CODE END Define */
  36:Core/Src/stm32f0xx_hal_msp.c **** 
  37:Core/Src/stm32f0xx_hal_msp.c **** /* Private macro -------------------------------------------------------------*/
  38:Core/Src/stm32f0xx_hal_msp.c **** /* USER CODE BEGIN Macro */
  39:Core/Src/stm32f0xx_hal_msp.c **** 
  40:Core/Src/stm32f0xx_hal_msp.c **** /* USER CODE END Macro */
  41:Core/Src/stm32f0xx_hal_msp.c **** 
  42:Core/Src/stm32f0xx_hal_msp.c **** /* Private variables ---------------------------------------------------------*/
  43:Core/Src/stm32f0xx_hal_msp.c **** /* USER CODE BEGIN PV */
  44:Core/Src/stm32f0xx_hal_msp.c **** 
  45:Core/Src/stm32f0xx_hal_msp.c **** /* USER CODE END PV */
  46:Core/Src/stm32f0xx_hal_msp.c **** 
  47:Core/Src/stm32f0xx_hal_msp.c **** /* Private function prototypes -----------------------------------------------*/
  48:Core/Src/stm32f0xx_hal_msp.c **** /* USER CODE BEGIN PFP */
  49:Core/Src/stm32f0xx_hal_msp.c **** 
  50:Core/Src/stm32f0xx_hal_msp.c **** /* USER CODE END PFP */
  51:Core/Src/stm32f0xx_hal_msp.c **** 
  52:Core/Src/stm32f0xx_hal_msp.c **** /* External functions --------------------------------------------------------*/
  53:Core/Src/stm32f0xx_hal_msp.c **** /* USER CODE BEGIN ExternalFunctions */
  54:Core/Src/stm32f0xx_hal_msp.c **** 
  55:Core/Src/stm32f0xx_hal_msp.c **** /* USER CODE END ExternalFunctions */
  56:Core/Src/stm32f0xx_hal_msp.c **** 
  57:Core/Src/stm32f0xx_hal_msp.c **** /* USER CODE BEGIN 0 */
  58:Core/Src/stm32f0xx_hal_msp.c **** 
  59:Core/Src/stm32f0xx_hal_msp.c **** /* USER CODE END 0 */
  60:Core/Src/stm32f0xx_hal_msp.c **** /**
  61:Core/Src/stm32f0xx_hal_msp.c ****   * Initializes the Global MSP.
  62:Core/Src/stm32f0xx_hal_msp.c ****   */
  63:Core/Src/stm32f0xx_hal_msp.c **** void HAL_MspInit(void)
  64:Core/Src/stm32f0xx_hal_msp.c **** {
  28              		.loc 1 64 0
  29              		.cfi_startproc
  30              		@ args = 0, pretend = 0, frame = 8
  31              		@ frame_needed = 0, uses_anonymous_args = 0
  32              		@ link register save eliminated.
  33 0000 82B0     		sub	sp, sp, #8
  34              	.LCFI0:
  35              		.cfi_def_cfa_offset 8
  36              	.LBB2:
  65:Core/Src/stm32f0xx_hal_msp.c ****   /* USER CODE BEGIN MspInit 0 */
  66:Core/Src/stm32f0xx_hal_msp.c **** 
  67:Core/Src/stm32f0xx_hal_msp.c ****   /* USER CODE END MspInit 0 */
  68:Core/Src/stm32f0xx_hal_msp.c **** 
  69:Core/Src/stm32f0xx_hal_msp.c ****   __HAL_RCC_SYSCFG_CLK_ENABLE();
  37              		.loc 1 69 0
  38 0002 0A4B     		ldr	r3, .L2
  39 0004 9969     		ldr	r1, [r3, #24]
  40 0006 0120     		movs	r0, #1
  41 0008 0143     		orrs	r1, r0
  42 000a 9961     		str	r1, [r3, #24]
  43 000c 9A69     		ldr	r2, [r3, #24]
  44 000e 0240     		ands	r2, r0
  45 0010 0092     		str	r2, [sp]
  46 0012 009A     		ldr	r2, [sp]
ARM GAS  /tmp/ccxc1KcM.s 			page 3


  47              	.LBE2:
  48              	.LBB3:
  70:Core/Src/stm32f0xx_hal_msp.c ****   __HAL_RCC_PWR_CLK_ENABLE();
  49              		.loc 1 70 0
  50 0014 D969     		ldr	r1, [r3, #28]
  51 0016 8022     		movs	r2, #128
  52 0018 5205     		lsls	r2, r2, #21
  53 001a 1143     		orrs	r1, r2
  54 001c D961     		str	r1, [r3, #28]
  55 001e DB69     		ldr	r3, [r3, #28]
  56 0020 1A40     		ands	r2, r3
  57 0022 0192     		str	r2, [sp, #4]
  58 0024 019B     		ldr	r3, [sp, #4]
  59              	.LBE3:
  71:Core/Src/stm32f0xx_hal_msp.c **** 
  72:Core/Src/stm32f0xx_hal_msp.c ****   /* System interrupt init*/
  73:Core/Src/stm32f0xx_hal_msp.c **** 
  74:Core/Src/stm32f0xx_hal_msp.c ****   /* USER CODE BEGIN MspInit 1 */
  75:Core/Src/stm32f0xx_hal_msp.c **** 
  76:Core/Src/stm32f0xx_hal_msp.c ****   /* USER CODE END MspInit 1 */
  77:Core/Src/stm32f0xx_hal_msp.c **** }
  60              		.loc 1 77 0
  61 0026 02B0     		add	sp, sp, #8
  62              		@ sp needed
  63 0028 7047     		bx	lr
  64              	.L3:
  65 002a C046     		.align	2
  66              	.L2:
  67 002c 00100240 		.word	1073876992
  68              		.cfi_endproc
  69              	.LFE40:
  71              		.section	.text.HAL_ADC_MspInit,"ax",%progbits
  72              		.align	2
  73              		.global	HAL_ADC_MspInit
  74              		.code	16
  75              		.thumb_func
  77              	HAL_ADC_MspInit:
  78              	.LFB41:
  78:Core/Src/stm32f0xx_hal_msp.c **** 
  79:Core/Src/stm32f0xx_hal_msp.c **** /**
  80:Core/Src/stm32f0xx_hal_msp.c **** * @brief ADC MSP Initialization
  81:Core/Src/stm32f0xx_hal_msp.c **** * This function configures the hardware resources used in this example
  82:Core/Src/stm32f0xx_hal_msp.c **** * @param hadc: ADC handle pointer
  83:Core/Src/stm32f0xx_hal_msp.c **** * @retval None
  84:Core/Src/stm32f0xx_hal_msp.c **** */
  85:Core/Src/stm32f0xx_hal_msp.c **** void HAL_ADC_MspInit(ADC_HandleTypeDef* hadc)
  86:Core/Src/stm32f0xx_hal_msp.c **** {
  79              		.loc 1 86 0
  80              		.cfi_startproc
  81              		@ args = 0, pretend = 0, frame = 32
  82              		@ frame_needed = 0, uses_anonymous_args = 0
  83              	.LVL0:
  84 0000 10B5     		push	{r4, lr}
  85              	.LCFI1:
  86              		.cfi_def_cfa_offset 8
  87              		.cfi_offset 4, -8
  88              		.cfi_offset 14, -4
ARM GAS  /tmp/ccxc1KcM.s 			page 4


  89 0002 88B0     		sub	sp, sp, #32
  90              	.LCFI2:
  91              		.cfi_def_cfa_offset 40
  92 0004 0400     		movs	r4, r0
  87:Core/Src/stm32f0xx_hal_msp.c ****   GPIO_InitTypeDef GPIO_InitStruct = {0};
  93              		.loc 1 87 0
  94 0006 1422     		movs	r2, #20
  95 0008 0021     		movs	r1, #0
  96 000a 03A8     		add	r0, sp, #12
  97              	.LVL1:
  98 000c FFF7FEFF 		bl	memset
  99              	.LVL2:
  88:Core/Src/stm32f0xx_hal_msp.c ****   if(hadc->Instance==ADC1)
 100              		.loc 1 88 0
 101 0010 2268     		ldr	r2, [r4]
 102 0012 104B     		ldr	r3, .L6
 103 0014 9A42     		cmp	r2, r3
 104 0016 1BD1     		bne	.L4
 105              	.LBB4:
  89:Core/Src/stm32f0xx_hal_msp.c ****   {
  90:Core/Src/stm32f0xx_hal_msp.c ****   /* USER CODE BEGIN ADC1_MspInit 0 */
  91:Core/Src/stm32f0xx_hal_msp.c **** 
  92:Core/Src/stm32f0xx_hal_msp.c ****   /* USER CODE END ADC1_MspInit 0 */
  93:Core/Src/stm32f0xx_hal_msp.c ****     /* Peripheral clock enable */
  94:Core/Src/stm32f0xx_hal_msp.c ****     __HAL_RCC_ADC1_CLK_ENABLE();
 106              		.loc 1 94 0
 107 0018 0F4B     		ldr	r3, .L6+4
 108 001a 9969     		ldr	r1, [r3, #24]
 109 001c 8022     		movs	r2, #128
 110 001e 9200     		lsls	r2, r2, #2
 111 0020 1143     		orrs	r1, r2
 112 0022 9961     		str	r1, [r3, #24]
 113 0024 9969     		ldr	r1, [r3, #24]
 114 0026 0A40     		ands	r2, r1
 115 0028 0192     		str	r2, [sp, #4]
 116 002a 019A     		ldr	r2, [sp, #4]
 117              	.LBE4:
 118              	.LBB5:
  95:Core/Src/stm32f0xx_hal_msp.c **** 
  96:Core/Src/stm32f0xx_hal_msp.c ****     __HAL_RCC_GPIOA_CLK_ENABLE();
 119              		.loc 1 96 0
 120 002c 5969     		ldr	r1, [r3, #20]
 121 002e 8022     		movs	r2, #128
 122 0030 9202     		lsls	r2, r2, #10
 123 0032 1143     		orrs	r1, r2
 124 0034 5961     		str	r1, [r3, #20]
 125 0036 5B69     		ldr	r3, [r3, #20]
 126 0038 1A40     		ands	r2, r3
 127 003a 0292     		str	r2, [sp, #8]
 128 003c 029B     		ldr	r3, [sp, #8]
 129              	.LBE5:
  97:Core/Src/stm32f0xx_hal_msp.c ****     /**ADC GPIO Configuration
  98:Core/Src/stm32f0xx_hal_msp.c ****     PA0     ------> ADC_IN0
  99:Core/Src/stm32f0xx_hal_msp.c ****     PA1     ------> ADC_IN1
 100:Core/Src/stm32f0xx_hal_msp.c ****     PA4     ------> ADC_IN4
 101:Core/Src/stm32f0xx_hal_msp.c ****     */
 102:Core/Src/stm32f0xx_hal_msp.c ****     GPIO_InitStruct.Pin = GPIO_PIN_0|GPIO_PIN_1|GPIO_PIN_4;
ARM GAS  /tmp/ccxc1KcM.s 			page 5


 130              		.loc 1 102 0
 131 003e 1323     		movs	r3, #19
 132 0040 0393     		str	r3, [sp, #12]
 103:Core/Src/stm32f0xx_hal_msp.c ****     GPIO_InitStruct.Mode = GPIO_MODE_ANALOG;
 133              		.loc 1 103 0
 134 0042 103B     		subs	r3, r3, #16
 135 0044 0493     		str	r3, [sp, #16]
 104:Core/Src/stm32f0xx_hal_msp.c ****     GPIO_InitStruct.Pull = GPIO_NOPULL;
 105:Core/Src/stm32f0xx_hal_msp.c ****     HAL_GPIO_Init(GPIOA, &GPIO_InitStruct);
 136              		.loc 1 105 0
 137 0046 03A9     		add	r1, sp, #12
 138 0048 9020     		movs	r0, #144
 139 004a C005     		lsls	r0, r0, #23
 140 004c FFF7FEFF 		bl	HAL_GPIO_Init
 141              	.LVL3:
 142              	.L4:
 106:Core/Src/stm32f0xx_hal_msp.c **** 
 107:Core/Src/stm32f0xx_hal_msp.c ****   /* USER CODE BEGIN ADC1_MspInit 1 */
 108:Core/Src/stm32f0xx_hal_msp.c **** 
 109:Core/Src/stm32f0xx_hal_msp.c ****   /* USER CODE END ADC1_MspInit 1 */
 110:Core/Src/stm32f0xx_hal_msp.c ****   }
 111:Core/Src/stm32f0xx_hal_msp.c **** 
 112:Core/Src/stm32f0xx_hal_msp.c **** }
 143              		.loc 1 112 0
 144 0050 08B0     		add	sp, sp, #32
 145              		@ sp needed
 146              	.LVL4:
 147 0052 10BD     		pop	{r4, pc}
 148              	.L7:
 149              		.align	2
 150              	.L6:
 151 0054 00240140 		.word	1073816576
 152 0058 00100240 		.word	1073876992
 153              		.cfi_endproc
 154              	.LFE41:
 156              		.section	.text.HAL_ADC_MspDeInit,"ax",%progbits
 157              		.align	2
 158              		.global	HAL_ADC_MspDeInit
 159              		.code	16
 160              		.thumb_func
 162              	HAL_ADC_MspDeInit:
 163              	.LFB42:
 113:Core/Src/stm32f0xx_hal_msp.c **** 
 114:Core/Src/stm32f0xx_hal_msp.c **** /**
 115:Core/Src/stm32f0xx_hal_msp.c **** * @brief ADC MSP De-Initialization
 116:Core/Src/stm32f0xx_hal_msp.c **** * This function freeze the hardware resources used in this example
 117:Core/Src/stm32f0xx_hal_msp.c **** * @param hadc: ADC handle pointer
 118:Core/Src/stm32f0xx_hal_msp.c **** * @retval None
 119:Core/Src/stm32f0xx_hal_msp.c **** */
 120:Core/Src/stm32f0xx_hal_msp.c **** void HAL_ADC_MspDeInit(ADC_HandleTypeDef* hadc)
 121:Core/Src/stm32f0xx_hal_msp.c **** {
 164              		.loc 1 121 0
 165              		.cfi_startproc
 166              		@ args = 0, pretend = 0, frame = 0
 167              		@ frame_needed = 0, uses_anonymous_args = 0
 168              	.LVL5:
 169 0000 10B5     		push	{r4, lr}
ARM GAS  /tmp/ccxc1KcM.s 			page 6


 170              	.LCFI3:
 171              		.cfi_def_cfa_offset 8
 172              		.cfi_offset 4, -8
 173              		.cfi_offset 14, -4
 122:Core/Src/stm32f0xx_hal_msp.c ****   if(hadc->Instance==ADC1)
 174              		.loc 1 122 0
 175 0002 0268     		ldr	r2, [r0]
 176 0004 064B     		ldr	r3, .L10
 177 0006 9A42     		cmp	r2, r3
 178 0008 09D1     		bne	.L8
 123:Core/Src/stm32f0xx_hal_msp.c ****   {
 124:Core/Src/stm32f0xx_hal_msp.c ****   /* USER CODE BEGIN ADC1_MspDeInit 0 */
 125:Core/Src/stm32f0xx_hal_msp.c **** 
 126:Core/Src/stm32f0xx_hal_msp.c ****   /* USER CODE END ADC1_MspDeInit 0 */
 127:Core/Src/stm32f0xx_hal_msp.c ****     /* Peripheral clock disable */
 128:Core/Src/stm32f0xx_hal_msp.c ****     __HAL_RCC_ADC1_CLK_DISABLE();
 179              		.loc 1 128 0
 180 000a 064A     		ldr	r2, .L10+4
 181 000c 9169     		ldr	r1, [r2, #24]
 182 000e 064B     		ldr	r3, .L10+8
 183 0010 0B40     		ands	r3, r1
 184 0012 9361     		str	r3, [r2, #24]
 129:Core/Src/stm32f0xx_hal_msp.c **** 
 130:Core/Src/stm32f0xx_hal_msp.c ****     /**ADC GPIO Configuration
 131:Core/Src/stm32f0xx_hal_msp.c ****     PA0     ------> ADC_IN0
 132:Core/Src/stm32f0xx_hal_msp.c ****     PA1     ------> ADC_IN1
 133:Core/Src/stm32f0xx_hal_msp.c ****     PA4     ------> ADC_IN4
 134:Core/Src/stm32f0xx_hal_msp.c ****     */
 135:Core/Src/stm32f0xx_hal_msp.c ****     HAL_GPIO_DeInit(GPIOA, GPIO_PIN_0|GPIO_PIN_1|GPIO_PIN_4);
 185              		.loc 1 135 0
 186 0014 1321     		movs	r1, #19
 187 0016 9020     		movs	r0, #144
 188              	.LVL6:
 189 0018 C005     		lsls	r0, r0, #23
 190 001a FFF7FEFF 		bl	HAL_GPIO_DeInit
 191              	.LVL7:
 192              	.L8:
 136:Core/Src/stm32f0xx_hal_msp.c **** 
 137:Core/Src/stm32f0xx_hal_msp.c ****   /* USER CODE BEGIN ADC1_MspDeInit 1 */
 138:Core/Src/stm32f0xx_hal_msp.c **** 
 139:Core/Src/stm32f0xx_hal_msp.c ****   /* USER CODE END ADC1_MspDeInit 1 */
 140:Core/Src/stm32f0xx_hal_msp.c ****   }
 141:Core/Src/stm32f0xx_hal_msp.c **** 
 142:Core/Src/stm32f0xx_hal_msp.c **** }
 193              		.loc 1 142 0
 194              		@ sp needed
 195 001e 10BD     		pop	{r4, pc}
 196              	.L11:
 197              		.align	2
 198              	.L10:
 199 0020 00240140 		.word	1073816576
 200 0024 00100240 		.word	1073876992
 201 0028 FFFDFFFF 		.word	-513
 202              		.cfi_endproc
 203              	.LFE42:
 205              		.section	.text.HAL_I2C_MspInit,"ax",%progbits
 206              		.align	2
ARM GAS  /tmp/ccxc1KcM.s 			page 7


 207              		.global	HAL_I2C_MspInit
 208              		.code	16
 209              		.thumb_func
 211              	HAL_I2C_MspInit:
 212              	.LFB43:
 143:Core/Src/stm32f0xx_hal_msp.c **** 
 144:Core/Src/stm32f0xx_hal_msp.c **** /**
 145:Core/Src/stm32f0xx_hal_msp.c **** * @brief I2C MSP Initialization
 146:Core/Src/stm32f0xx_hal_msp.c **** * This function configures the hardware resources used in this example
 147:Core/Src/stm32f0xx_hal_msp.c **** * @param hi2c: I2C handle pointer
 148:Core/Src/stm32f0xx_hal_msp.c **** * @retval None
 149:Core/Src/stm32f0xx_hal_msp.c **** */
 150:Core/Src/stm32f0xx_hal_msp.c **** void HAL_I2C_MspInit(I2C_HandleTypeDef* hi2c)
 151:Core/Src/stm32f0xx_hal_msp.c **** {
 213              		.loc 1 151 0
 214              		.cfi_startproc
 215              		@ args = 0, pretend = 0, frame = 32
 216              		@ frame_needed = 0, uses_anonymous_args = 0
 217              	.LVL8:
 218 0000 10B5     		push	{r4, lr}
 219              	.LCFI4:
 220              		.cfi_def_cfa_offset 8
 221              		.cfi_offset 4, -8
 222              		.cfi_offset 14, -4
 223 0002 88B0     		sub	sp, sp, #32
 224              	.LCFI5:
 225              		.cfi_def_cfa_offset 40
 226 0004 0400     		movs	r4, r0
 152:Core/Src/stm32f0xx_hal_msp.c ****   GPIO_InitTypeDef GPIO_InitStruct = {0};
 227              		.loc 1 152 0
 228 0006 1422     		movs	r2, #20
 229 0008 0021     		movs	r1, #0
 230 000a 03A8     		add	r0, sp, #12
 231              	.LVL9:
 232 000c FFF7FEFF 		bl	memset
 233              	.LVL10:
 153:Core/Src/stm32f0xx_hal_msp.c ****   if(hi2c->Instance==I2C1)
 234              		.loc 1 153 0
 235 0010 2268     		ldr	r2, [r4]
 236 0012 134B     		ldr	r3, .L14
 237 0014 9A42     		cmp	r2, r3
 238 0016 20D1     		bne	.L12
 239              	.LBB6:
 154:Core/Src/stm32f0xx_hal_msp.c ****   {
 155:Core/Src/stm32f0xx_hal_msp.c ****   /* USER CODE BEGIN I2C1_MspInit 0 */
 156:Core/Src/stm32f0xx_hal_msp.c **** 
 157:Core/Src/stm32f0xx_hal_msp.c ****   /* USER CODE END I2C1_MspInit 0 */
 158:Core/Src/stm32f0xx_hal_msp.c **** 
 159:Core/Src/stm32f0xx_hal_msp.c ****     __HAL_RCC_GPIOA_CLK_ENABLE();
 240              		.loc 1 159 0
 241 0018 124C     		ldr	r4, .L14+4
 242              	.LVL11:
 243 001a 6269     		ldr	r2, [r4, #20]
 244 001c 8023     		movs	r3, #128
 245 001e 9B02     		lsls	r3, r3, #10
 246 0020 1A43     		orrs	r2, r3
 247 0022 6261     		str	r2, [r4, #20]
ARM GAS  /tmp/ccxc1KcM.s 			page 8


 248 0024 6269     		ldr	r2, [r4, #20]
 249 0026 1340     		ands	r3, r2
 250 0028 0193     		str	r3, [sp, #4]
 251 002a 019B     		ldr	r3, [sp, #4]
 252              	.LBE6:
 160:Core/Src/stm32f0xx_hal_msp.c ****     /**I2C1 GPIO Configuration
 161:Core/Src/stm32f0xx_hal_msp.c ****     PA9     ------> I2C1_SCL
 162:Core/Src/stm32f0xx_hal_msp.c ****     PA10     ------> I2C1_SDA
 163:Core/Src/stm32f0xx_hal_msp.c ****     */
 164:Core/Src/stm32f0xx_hal_msp.c ****     GPIO_InitStruct.Pin = GPIO_PIN_9|GPIO_PIN_10;
 253              		.loc 1 164 0
 254 002c C023     		movs	r3, #192
 255 002e DB00     		lsls	r3, r3, #3
 256 0030 0393     		str	r3, [sp, #12]
 165:Core/Src/stm32f0xx_hal_msp.c ****     GPIO_InitStruct.Mode = GPIO_MODE_AF_OD;
 257              		.loc 1 165 0
 258 0032 1223     		movs	r3, #18
 259 0034 0493     		str	r3, [sp, #16]
 166:Core/Src/stm32f0xx_hal_msp.c ****     GPIO_InitStruct.Pull = GPIO_NOPULL;
 167:Core/Src/stm32f0xx_hal_msp.c ****     GPIO_InitStruct.Speed = GPIO_SPEED_FREQ_HIGH;
 260              		.loc 1 167 0
 261 0036 0F3B     		subs	r3, r3, #15
 262 0038 0693     		str	r3, [sp, #24]
 168:Core/Src/stm32f0xx_hal_msp.c ****     GPIO_InitStruct.Alternate = GPIO_AF4_I2C1;
 263              		.loc 1 168 0
 264 003a 0133     		adds	r3, r3, #1
 265 003c 0793     		str	r3, [sp, #28]
 169:Core/Src/stm32f0xx_hal_msp.c ****     HAL_GPIO_Init(GPIOA, &GPIO_InitStruct);
 266              		.loc 1 169 0
 267 003e 03A9     		add	r1, sp, #12
 268 0040 9020     		movs	r0, #144
 269 0042 C005     		lsls	r0, r0, #23
 270 0044 FFF7FEFF 		bl	HAL_GPIO_Init
 271              	.LVL12:
 272              	.LBB7:
 170:Core/Src/stm32f0xx_hal_msp.c **** 
 171:Core/Src/stm32f0xx_hal_msp.c ****     /* Peripheral clock enable */
 172:Core/Src/stm32f0xx_hal_msp.c ****     __HAL_RCC_I2C1_CLK_ENABLE();
 273              		.loc 1 172 0
 274 0048 E269     		ldr	r2, [r4, #28]
 275 004a 8023     		movs	r3, #128
 276 004c 9B03     		lsls	r3, r3, #14
 277 004e 1A43     		orrs	r2, r3
 278 0050 E261     		str	r2, [r4, #28]
 279 0052 E269     		ldr	r2, [r4, #28]
 280 0054 1340     		ands	r3, r2
 281 0056 0293     		str	r3, [sp, #8]
 282 0058 029B     		ldr	r3, [sp, #8]
 283              	.L12:
 284              	.LBE7:
 173:Core/Src/stm32f0xx_hal_msp.c ****   /* USER CODE BEGIN I2C1_MspInit 1 */
 174:Core/Src/stm32f0xx_hal_msp.c **** 
 175:Core/Src/stm32f0xx_hal_msp.c ****   /* USER CODE END I2C1_MspInit 1 */
 176:Core/Src/stm32f0xx_hal_msp.c ****   }
 177:Core/Src/stm32f0xx_hal_msp.c **** 
 178:Core/Src/stm32f0xx_hal_msp.c **** }
 285              		.loc 1 178 0
ARM GAS  /tmp/ccxc1KcM.s 			page 9


 286 005a 08B0     		add	sp, sp, #32
 287              		@ sp needed
 288 005c 10BD     		pop	{r4, pc}
 289              	.L15:
 290 005e C046     		.align	2
 291              	.L14:
 292 0060 00540040 		.word	1073763328
 293 0064 00100240 		.word	1073876992
 294              		.cfi_endproc
 295              	.LFE43:
 297              		.section	.text.HAL_I2C_MspDeInit,"ax",%progbits
 298              		.align	2
 299              		.global	HAL_I2C_MspDeInit
 300              		.code	16
 301              		.thumb_func
 303              	HAL_I2C_MspDeInit:
 304              	.LFB44:
 179:Core/Src/stm32f0xx_hal_msp.c **** 
 180:Core/Src/stm32f0xx_hal_msp.c **** /**
 181:Core/Src/stm32f0xx_hal_msp.c **** * @brief I2C MSP De-Initialization
 182:Core/Src/stm32f0xx_hal_msp.c **** * This function freeze the hardware resources used in this example
 183:Core/Src/stm32f0xx_hal_msp.c **** * @param hi2c: I2C handle pointer
 184:Core/Src/stm32f0xx_hal_msp.c **** * @retval None
 185:Core/Src/stm32f0xx_hal_msp.c **** */
 186:Core/Src/stm32f0xx_hal_msp.c **** void HAL_I2C_MspDeInit(I2C_HandleTypeDef* hi2c)
 187:Core/Src/stm32f0xx_hal_msp.c **** {
 305              		.loc 1 187 0
 306              		.cfi_startproc
 307              		@ args = 0, pretend = 0, frame = 0
 308              		@ frame_needed = 0, uses_anonymous_args = 0
 309              	.LVL13:
 310 0000 10B5     		push	{r4, lr}
 311              	.LCFI6:
 312              		.cfi_def_cfa_offset 8
 313              		.cfi_offset 4, -8
 314              		.cfi_offset 14, -4
 188:Core/Src/stm32f0xx_hal_msp.c ****   if(hi2c->Instance==I2C1)
 315              		.loc 1 188 0
 316 0002 0268     		ldr	r2, [r0]
 317 0004 0A4B     		ldr	r3, .L18
 318 0006 9A42     		cmp	r2, r3
 319 0008 10D1     		bne	.L16
 189:Core/Src/stm32f0xx_hal_msp.c ****   {
 190:Core/Src/stm32f0xx_hal_msp.c ****   /* USER CODE BEGIN I2C1_MspDeInit 0 */
 191:Core/Src/stm32f0xx_hal_msp.c **** 
 192:Core/Src/stm32f0xx_hal_msp.c ****   /* USER CODE END I2C1_MspDeInit 0 */
 193:Core/Src/stm32f0xx_hal_msp.c ****     /* Peripheral clock disable */
 194:Core/Src/stm32f0xx_hal_msp.c ****     __HAL_RCC_I2C1_CLK_DISABLE();
 320              		.loc 1 194 0
 321 000a 0A4A     		ldr	r2, .L18+4
 322 000c D169     		ldr	r1, [r2, #28]
 323 000e 0A4B     		ldr	r3, .L18+8
 324 0010 0B40     		ands	r3, r1
 325 0012 D361     		str	r3, [r2, #28]
 195:Core/Src/stm32f0xx_hal_msp.c **** 
 196:Core/Src/stm32f0xx_hal_msp.c ****     /**I2C1 GPIO Configuration
 197:Core/Src/stm32f0xx_hal_msp.c ****     PA9     ------> I2C1_SCL
ARM GAS  /tmp/ccxc1KcM.s 			page 10


 198:Core/Src/stm32f0xx_hal_msp.c ****     PA10     ------> I2C1_SDA
 199:Core/Src/stm32f0xx_hal_msp.c ****     */
 200:Core/Src/stm32f0xx_hal_msp.c ****     HAL_GPIO_DeInit(GPIOA, GPIO_PIN_9);
 326              		.loc 1 200 0
 327 0014 9024     		movs	r4, #144
 328 0016 E405     		lsls	r4, r4, #23
 329 0018 8021     		movs	r1, #128
 330 001a 8900     		lsls	r1, r1, #2
 331 001c 2000     		movs	r0, r4
 332              	.LVL14:
 333 001e FFF7FEFF 		bl	HAL_GPIO_DeInit
 334              	.LVL15:
 201:Core/Src/stm32f0xx_hal_msp.c **** 
 202:Core/Src/stm32f0xx_hal_msp.c ****     HAL_GPIO_DeInit(GPIOA, GPIO_PIN_10);
 335              		.loc 1 202 0
 336 0022 8021     		movs	r1, #128
 337 0024 C900     		lsls	r1, r1, #3
 338 0026 2000     		movs	r0, r4
 339 0028 FFF7FEFF 		bl	HAL_GPIO_DeInit
 340              	.LVL16:
 341              	.L16:
 203:Core/Src/stm32f0xx_hal_msp.c **** 
 204:Core/Src/stm32f0xx_hal_msp.c ****   /* USER CODE BEGIN I2C1_MspDeInit 1 */
 205:Core/Src/stm32f0xx_hal_msp.c **** 
 206:Core/Src/stm32f0xx_hal_msp.c ****   /* USER CODE END I2C1_MspDeInit 1 */
 207:Core/Src/stm32f0xx_hal_msp.c ****   }
 208:Core/Src/stm32f0xx_hal_msp.c **** 
 209:Core/Src/stm32f0xx_hal_msp.c **** }
 342              		.loc 1 209 0
 343              		@ sp needed
 344 002c 10BD     		pop	{r4, pc}
 345              	.L19:
 346 002e C046     		.align	2
 347              	.L18:
 348 0030 00540040 		.word	1073763328
 349 0034 00100240 		.word	1073876992
 350 0038 FFFFDFFF 		.word	-2097153
 351              		.cfi_endproc
 352              	.LFE44:
 354              		.section	.text.HAL_UART_MspInit,"ax",%progbits
 355              		.align	2
 356              		.global	HAL_UART_MspInit
 357              		.code	16
 358              		.thumb_func
 360              	HAL_UART_MspInit:
 361              	.LFB45:
 210:Core/Src/stm32f0xx_hal_msp.c **** 
 211:Core/Src/stm32f0xx_hal_msp.c **** /**
 212:Core/Src/stm32f0xx_hal_msp.c **** * @brief UART MSP Initialization
 213:Core/Src/stm32f0xx_hal_msp.c **** * This function configures the hardware resources used in this example
 214:Core/Src/stm32f0xx_hal_msp.c **** * @param huart: UART handle pointer
 215:Core/Src/stm32f0xx_hal_msp.c **** * @retval None
 216:Core/Src/stm32f0xx_hal_msp.c **** */
 217:Core/Src/stm32f0xx_hal_msp.c **** void HAL_UART_MspInit(UART_HandleTypeDef* huart)
 218:Core/Src/stm32f0xx_hal_msp.c **** {
 362              		.loc 1 218 0
 363              		.cfi_startproc
ARM GAS  /tmp/ccxc1KcM.s 			page 11


 364              		@ args = 0, pretend = 0, frame = 32
 365              		@ frame_needed = 0, uses_anonymous_args = 0
 366              	.LVL17:
 367 0000 10B5     		push	{r4, lr}
 368              	.LCFI7:
 369              		.cfi_def_cfa_offset 8
 370              		.cfi_offset 4, -8
 371              		.cfi_offset 14, -4
 372 0002 88B0     		sub	sp, sp, #32
 373              	.LCFI8:
 374              		.cfi_def_cfa_offset 40
 375 0004 0400     		movs	r4, r0
 219:Core/Src/stm32f0xx_hal_msp.c ****   GPIO_InitTypeDef GPIO_InitStruct = {0};
 376              		.loc 1 219 0
 377 0006 1422     		movs	r2, #20
 378 0008 0021     		movs	r1, #0
 379 000a 03A8     		add	r0, sp, #12
 380              	.LVL18:
 381 000c FFF7FEFF 		bl	memset
 382              	.LVL19:
 220:Core/Src/stm32f0xx_hal_msp.c ****   if(huart->Instance==USART1)
 383              		.loc 1 220 0
 384 0010 2268     		ldr	r2, [r4]
 385 0012 124B     		ldr	r3, .L22
 386 0014 9A42     		cmp	r2, r3
 387 0016 1FD1     		bne	.L20
 388              	.LBB8:
 221:Core/Src/stm32f0xx_hal_msp.c ****   {
 222:Core/Src/stm32f0xx_hal_msp.c ****   /* USER CODE BEGIN USART1_MspInit 0 */
 223:Core/Src/stm32f0xx_hal_msp.c **** 
 224:Core/Src/stm32f0xx_hal_msp.c ****   /* USER CODE END USART1_MspInit 0 */
 225:Core/Src/stm32f0xx_hal_msp.c ****     /* Peripheral clock enable */
 226:Core/Src/stm32f0xx_hal_msp.c ****     __HAL_RCC_USART1_CLK_ENABLE();
 389              		.loc 1 226 0
 390 0018 114B     		ldr	r3, .L22+4
 391 001a 9969     		ldr	r1, [r3, #24]
 392 001c 8022     		movs	r2, #128
 393 001e D201     		lsls	r2, r2, #7
 394 0020 1143     		orrs	r1, r2
 395 0022 9961     		str	r1, [r3, #24]
 396 0024 9969     		ldr	r1, [r3, #24]
 397 0026 0A40     		ands	r2, r1
 398 0028 0192     		str	r2, [sp, #4]
 399 002a 019A     		ldr	r2, [sp, #4]
 400              	.LBE8:
 401              	.LBB9:
 227:Core/Src/stm32f0xx_hal_msp.c **** 
 228:Core/Src/stm32f0xx_hal_msp.c ****     __HAL_RCC_GPIOA_CLK_ENABLE();
 402              		.loc 1 228 0
 403 002c 5969     		ldr	r1, [r3, #20]
 404 002e 8022     		movs	r2, #128
 405 0030 9202     		lsls	r2, r2, #10
 406 0032 1143     		orrs	r1, r2
 407 0034 5961     		str	r1, [r3, #20]
 408 0036 5B69     		ldr	r3, [r3, #20]
 409 0038 1A40     		ands	r2, r3
 410 003a 0292     		str	r2, [sp, #8]
ARM GAS  /tmp/ccxc1KcM.s 			page 12


 411 003c 029B     		ldr	r3, [sp, #8]
 412              	.LBE9:
 229:Core/Src/stm32f0xx_hal_msp.c ****     /**USART1 GPIO Configuration
 230:Core/Src/stm32f0xx_hal_msp.c ****     PA2     ------> USART1_TX
 231:Core/Src/stm32f0xx_hal_msp.c ****     PA3     ------> USART1_RX
 232:Core/Src/stm32f0xx_hal_msp.c ****     */
 233:Core/Src/stm32f0xx_hal_msp.c ****     GPIO_InitStruct.Pin = GPIO_PIN_2|GPIO_PIN_3;
 413              		.loc 1 233 0
 414 003e 0C23     		movs	r3, #12
 415 0040 0393     		str	r3, [sp, #12]
 234:Core/Src/stm32f0xx_hal_msp.c ****     GPIO_InitStruct.Mode = GPIO_MODE_AF_PP;
 416              		.loc 1 234 0
 417 0042 0A3B     		subs	r3, r3, #10
 418 0044 0493     		str	r3, [sp, #16]
 235:Core/Src/stm32f0xx_hal_msp.c ****     GPIO_InitStruct.Pull = GPIO_NOPULL;
 236:Core/Src/stm32f0xx_hal_msp.c ****     GPIO_InitStruct.Speed = GPIO_SPEED_FREQ_HIGH;
 419              		.loc 1 236 0
 420 0046 0133     		adds	r3, r3, #1
 421 0048 0693     		str	r3, [sp, #24]
 237:Core/Src/stm32f0xx_hal_msp.c ****     GPIO_InitStruct.Alternate = GPIO_AF1_USART1;
 422              		.loc 1 237 0
 423 004a 023B     		subs	r3, r3, #2
 424 004c 0793     		str	r3, [sp, #28]
 238:Core/Src/stm32f0xx_hal_msp.c ****     HAL_GPIO_Init(GPIOA, &GPIO_InitStruct);
 425              		.loc 1 238 0
 426 004e 03A9     		add	r1, sp, #12
 427 0050 9020     		movs	r0, #144
 428 0052 C005     		lsls	r0, r0, #23
 429 0054 FFF7FEFF 		bl	HAL_GPIO_Init
 430              	.LVL20:
 431              	.L20:
 239:Core/Src/stm32f0xx_hal_msp.c **** 
 240:Core/Src/stm32f0xx_hal_msp.c ****   /* USER CODE BEGIN USART1_MspInit 1 */
 241:Core/Src/stm32f0xx_hal_msp.c **** 
 242:Core/Src/stm32f0xx_hal_msp.c ****   /* USER CODE END USART1_MspInit 1 */
 243:Core/Src/stm32f0xx_hal_msp.c ****   }
 244:Core/Src/stm32f0xx_hal_msp.c **** 
 245:Core/Src/stm32f0xx_hal_msp.c **** }
 432              		.loc 1 245 0
 433 0058 08B0     		add	sp, sp, #32
 434              		@ sp needed
 435              	.LVL21:
 436 005a 10BD     		pop	{r4, pc}
 437              	.L23:
 438              		.align	2
 439              	.L22:
 440 005c 00380140 		.word	1073821696
 441 0060 00100240 		.word	1073876992
 442              		.cfi_endproc
 443              	.LFE45:
 445              		.section	.text.HAL_UART_MspDeInit,"ax",%progbits
 446              		.align	2
 447              		.global	HAL_UART_MspDeInit
 448              		.code	16
 449              		.thumb_func
 451              	HAL_UART_MspDeInit:
 452              	.LFB46:
ARM GAS  /tmp/ccxc1KcM.s 			page 13


 246:Core/Src/stm32f0xx_hal_msp.c **** 
 247:Core/Src/stm32f0xx_hal_msp.c **** /**
 248:Core/Src/stm32f0xx_hal_msp.c **** * @brief UART MSP De-Initialization
 249:Core/Src/stm32f0xx_hal_msp.c **** * This function freeze the hardware resources used in this example
 250:Core/Src/stm32f0xx_hal_msp.c **** * @param huart: UART handle pointer
 251:Core/Src/stm32f0xx_hal_msp.c **** * @retval None
 252:Core/Src/stm32f0xx_hal_msp.c **** */
 253:Core/Src/stm32f0xx_hal_msp.c **** void HAL_UART_MspDeInit(UART_HandleTypeDef* huart)
 254:Core/Src/stm32f0xx_hal_msp.c **** {
 453              		.loc 1 254 0
 454              		.cfi_startproc
 455              		@ args = 0, pretend = 0, frame = 0
 456              		@ frame_needed = 0, uses_anonymous_args = 0
 457              	.LVL22:
 458 0000 10B5     		push	{r4, lr}
 459              	.LCFI9:
 460              		.cfi_def_cfa_offset 8
 461              		.cfi_offset 4, -8
 462              		.cfi_offset 14, -4
 255:Core/Src/stm32f0xx_hal_msp.c ****   if(huart->Instance==USART1)
 463              		.loc 1 255 0
 464 0002 0268     		ldr	r2, [r0]
 465 0004 064B     		ldr	r3, .L26
 466 0006 9A42     		cmp	r2, r3
 467 0008 09D1     		bne	.L24
 256:Core/Src/stm32f0xx_hal_msp.c ****   {
 257:Core/Src/stm32f0xx_hal_msp.c ****   /* USER CODE BEGIN USART1_MspDeInit 0 */
 258:Core/Src/stm32f0xx_hal_msp.c **** 
 259:Core/Src/stm32f0xx_hal_msp.c ****   /* USER CODE END USART1_MspDeInit 0 */
 260:Core/Src/stm32f0xx_hal_msp.c ****     /* Peripheral clock disable */
 261:Core/Src/stm32f0xx_hal_msp.c ****     __HAL_RCC_USART1_CLK_DISABLE();
 468              		.loc 1 261 0
 469 000a 064A     		ldr	r2, .L26+4
 470 000c 9169     		ldr	r1, [r2, #24]
 471 000e 064B     		ldr	r3, .L26+8
 472 0010 0B40     		ands	r3, r1
 473 0012 9361     		str	r3, [r2, #24]
 262:Core/Src/stm32f0xx_hal_msp.c **** 
 263:Core/Src/stm32f0xx_hal_msp.c ****     /**USART1 GPIO Configuration
 264:Core/Src/stm32f0xx_hal_msp.c ****     PA2     ------> USART1_TX
 265:Core/Src/stm32f0xx_hal_msp.c ****     PA3     ------> USART1_RX
 266:Core/Src/stm32f0xx_hal_msp.c ****     */
 267:Core/Src/stm32f0xx_hal_msp.c ****     HAL_GPIO_DeInit(GPIOA, GPIO_PIN_2|GPIO_PIN_3);
 474              		.loc 1 267 0
 475 0014 0C21     		movs	r1, #12
 476 0016 9020     		movs	r0, #144
 477              	.LVL23:
 478 0018 C005     		lsls	r0, r0, #23
 479 001a FFF7FEFF 		bl	HAL_GPIO_DeInit
 480              	.LVL24:
 481              	.L24:
 268:Core/Src/stm32f0xx_hal_msp.c **** 
 269:Core/Src/stm32f0xx_hal_msp.c ****   /* USER CODE BEGIN USART1_MspDeInit 1 */
 270:Core/Src/stm32f0xx_hal_msp.c **** 
 271:Core/Src/stm32f0xx_hal_msp.c ****   /* USER CODE END USART1_MspDeInit 1 */
 272:Core/Src/stm32f0xx_hal_msp.c ****   }
 273:Core/Src/stm32f0xx_hal_msp.c **** 
ARM GAS  /tmp/ccxc1KcM.s 			page 14


 274:Core/Src/stm32f0xx_hal_msp.c **** }
 482              		.loc 1 274 0
 483              		@ sp needed
 484 001e 10BD     		pop	{r4, pc}
 485              	.L27:
 486              		.align	2
 487              	.L26:
 488 0020 00380140 		.word	1073821696
 489 0024 00100240 		.word	1073876992
 490 0028 FFBFFFFF 		.word	-16385
 491              		.cfi_endproc
 492              	.LFE46:
 494              		.text
 495              	.Letext0:
 496              		.file 2 "/home/yuan/gcc-arm-none-eabi-5_4-2016q3/arm-none-eabi/include/machine/_default_types.h"
 497              		.file 3 "/home/yuan/gcc-arm-none-eabi-5_4-2016q3/arm-none-eabi/include/sys/_stdint.h"
 498              		.file 4 "Drivers/CMSIS/Device/ST/STM32F0xx/Include/stm32f030x6.h"
 499              		.file 5 "Drivers/CMSIS/Device/ST/STM32F0xx/Include/stm32f0xx.h"
 500              		.file 6 "Drivers/STM32F0xx_HAL_Driver/Inc/stm32f0xx_hal_def.h"
 501              		.file 7 "Drivers/STM32F0xx_HAL_Driver/Inc/stm32f0xx_hal_gpio.h"
 502              		.file 8 "Drivers/STM32F0xx_HAL_Driver/Inc/stm32f0xx_hal_dma.h"
 503              		.file 9 "Drivers/STM32F0xx_HAL_Driver/Inc/stm32f0xx_hal_adc.h"
 504              		.file 10 "Drivers/STM32F0xx_HAL_Driver/Inc/stm32f0xx_hal_i2c.h"
 505              		.file 11 "Drivers/STM32F0xx_HAL_Driver/Inc/stm32f0xx_hal_uart.h"
ARM GAS  /tmp/ccxc1KcM.s 			page 15

